

Microchip Technology PIC PRO Macro Assembler V1.45 build -152302408 
                                                                                               Wed Aug 20 09:39:03 2025


     1                           	processor	18m121b1
     2                           	opt	pw 120
     3                           	opt	pm
     4                           	psect	idataBANK0,global,class=CODE,delta=2
     5                           	psect	strings,global,class=STRING,delta=2
     6                           	psect	cinit,global,class=CODE,merge=1,delta=2
     7                           	psect	bssBANK0,global,class=BANK0,space=1,delta=1
     8                           	psect	dataBANK0,global,class=BANK0,space=1,delta=1
     9                           	psect	cstackBANK1h,global,class=BANK1,space=1,delta=1
    10                           	psect	cstackCOMMON,global,class=COMMON,space=1,delta=1
    11                           	psect	cstackBANK0,global,class=BANK0,space=1,delta=1
    12                           	psect	maintext,global,class=CODE,split=1,delta=2
    13                           	psect	text1,local,class=CODE,merge=1,delta=2
    14                           	psect	text2,local,class=CODE,merge=1,delta=2
    15                           	psect	text3,local,class=CODE,merge=1,delta=2
    16                           	psect	text4,local,class=CODE,merge=1,delta=2
    17                           	psect	text5,local,class=CODE,merge=1,delta=2,group=1
    18                           	psect	text6,local,class=CODE,merge=1,delta=2
    19                           	psect	text7,local,class=CODE,merge=1,delta=2
    20                           	psect	text8,local,class=CODE,merge=1,delta=2
    21                           	psect	text9,local,class=CODE,merge=1,delta=2
    22                           	psect	text10,local,class=CODE,merge=1,delta=2
    23                           	psect	text11,local,class=CODE,merge=1,delta=2
    24                           	psect	text12,local,class=CODE,merge=1,delta=2
    25                           	psect	text13,local,class=CODE,merge=1,delta=2
    26                           	psect	text14,local,class=CODE,merge=1,delta=2
    27                           	psect	swtext1,local,class=CONST,delta=2
    28                           	psect	text15,local,class=CODE,merge=1,delta=2
    29                           	psect	text16,local,class=CODE,merge=1,delta=2
    30                           	psect	text17,local,class=CODE,merge=1,delta=2
    31                           	psect	text18,local,class=CODE,merge=1,delta=2
    32                           	psect	text19,local,class=CODE,merge=1,delta=2
    33                           	psect	text20,local,class=CODE,merge=1,delta=2
    34                           	psect	text21,local,class=CODE,merge=1,delta=2
    35                           	psect	swtext2,local,class=CONST,delta=2
    36                           	psect	text22,local,class=CODE,merge=1,delta=2
    37                           	psect	text23,local,class=CODE,merge=1,delta=2
    38                           	psect	text24,local,class=CODE,merge=1,delta=2
    39                           	psect	text25,local,class=CODE,merge=1,delta=2
    40                           	psect	text26,local,class=CODE,merge=1,delta=2
    41                           	psect	text27,local,class=CODE,merge=1,delta=2
    42                           	psect	intentry,global,class=CODE,delta=2
    43                           	psect	text28,local,class=CODE,merge=1,delta=2
    44                           	psect	text29,local,class=CODE,merge=1,delta=2
    45                           	psect	text30,local,class=CODE,merge=1,delta=2
    46                           	psect	text31,local,class=CODE,merge=1,delta=2
    47                           	psect	text32,local,class=CODE,merge=1,delta=2
    48                           	psect	text33,local,class=CODE,merge=1,delta=2
    49                           	psect	text34,local,class=CODE,merge=1,delta=2
    50                           	psect	text35,local,class=CODE,merge=1,delta=2
    51                           	psect	text36,local,class=CODE,merge=1,delta=2
    52                           	psect	text37,local,class=CODE,merge=1,delta=2
    53                           	psect	text38,local,class=CODE,merge=1,delta=2
    54                           	psect	text39,local,class=CODE,merge=1,delta=2
    55                           	psect	text40,local,class=CODE,merge=1,delta=2
    56                           	psect	text41,local,class=CODE,merge=1,delta=2
    57                           	psect	text42,local,class=CODE,merge=1,delta=2
    58                           	psect	text43,local,class=CODE,merge=1,delta=2
    59                           	psect	text44,local,class=CODE,merge=1,delta=2
    60                           	psect	text45,local,class=CODE,merge=1,delta=2
    61                           	psect	text46,local,class=CODE,merge=1,delta=2
    62                           	psect	text47,local,class=CODE,merge=1,delta=2
    63                           	psect	text48,local,class=CODE,merge=1,delta=2
    64                           	psect	pa_nodes0,global,class=CODE,delta=2
    65                           	psect	pa_nodes0,global,class=CODE,delta=2
    66                           	dabs	1,0x5B,1,_ADCON1
    67                           	dabs	1,0x5A,1,_ADCON0
    68                           	dabs	1,0x59,1,_ADRESH
    69                           	dabs	1,0x58,1,_ADRESL
    70                           	dabs	1,0x57,1,_ANSELH
    71                           	dabs	1,0x56,1,_ANSELL
    72                           	dabs	1,0x55,1,_PWMSET
    73                           	dabs	1,0x54,1,_PWM1P
    74                           	dabs	1,0x53,1,_T2LOAD
    75                           	dabs	1,0x52,1,_T2
    76                           	dabs	1,0x51,1,_TMR2H
    77                           	dabs	1,0x50,1,_T2CON
    78                           	dabs	1,0x4F,1,_PWM0P
    79                           	dabs	1,0x4E,1,_T1LOAD
    80                           	dabs	1,0x4D,1,_T1
    81                           	dabs	1,0x4C,1,_T1CON
    82                           	dabs	1,0x4B,1,_T1CR_AUXR
    83                           	dabs	1,0x4A,1,_PMDATH
    84                           	dabs	1,0x49,1,_PMDATL
    85                           	dabs	1,0x48,1,_PMADRH
    86                           	dabs	1,0x47,1,_PMADRL
    87                           	dabs	1,0x46,1,_TRISB
    88                           	dabs	1,0x45,1,_TRISA
    89                           	dabs	1,0x43,1,_PHCON1
    90                           	dabs	1,0x42,1,_PDCON1
    91                           	dabs	1,0x41,1,_OPTION
    92                           	dabs	1,0x40,1,_PMCON
    93                           	dabs	1,0x2DE,0,_ADCS2
    94                           	dabs	1,0x5B,1
    95                           	dabs	1,0x2DD,0,_ADCS1
    96                           	dabs	1,0x5B,1
    97                           	dabs	1,0x2DC,0,_ADCS0
    98                           	dabs	1,0x5B,1
    99                           	dabs	1,0x2DB,0,_VHS2
   100                           	dabs	1,0x5B,1
   101                           	dabs	1,0x2DA,0,_VHS1
   102                           	dabs	1,0x5B,1
   103                           	dabs	1,0x2D9,0,_VHS0
   104                           	dabs	1,0x5B,1
   105                           	dabs	1,0x2D8,0,_ADREF
   106                           	dabs	1,0x5B,1
   107                           	dabs	1,0x2D5,0,_CHS3
   108                           	dabs	1,0x5A,1
   109                           	dabs	1,0x2D4,0,_CHS2
   110                           	dabs	1,0x5A,1
   111                           	dabs	1,0x2D3,0,_CHS1
   112                           	dabs	1,0x5A,1
   113                           	dabs	1,0x2D2,0,_CHS0
   114                           	dabs	1,0x5A,1
   115                           	dabs	1,0x2D1,0,_ADON
   116                           	dabs	1,0x5A,1
   117                           	dabs	1,0x2D0,0,_ADEN
   118                           	dabs	1,0x5A,1
   119                           	dabs	1,0x2BF,0,_ANSEL15
   120                           	dabs	1,0x57,1
   121                           	dabs	1,0x2BE,0,_ANSEL14
   122                           	dabs	1,0x57,1
   123                           	dabs	1,0x2BB,0,_ANSEL11
   124                           	dabs	1,0x57,1
   125                           	dabs	1,0x2BA,0,_ANSEL10
   126                           	dabs	1,0x57,1
   127                           	dabs	1,0x2B9,0,_ANSEL9
   128                           	dabs	1,0x57,1
   129                           	dabs	1,0x2B8,0,_ANSEL8
   130                           	dabs	1,0x57,1
   131                           	dabs	1,0x2B7,0,_ANSEL7
   132                           	dabs	1,0x56,1
   133                           	dabs	1,0x2B6,0,_ANSEL6
   134                           	dabs	1,0x56,1
   135                           	dabs	1,0x2B5,0,_ANSEL5
   136                           	dabs	1,0x56,1
   137                           	dabs	1,0x2B4,0,_ANSEL4
   138                           	dabs	1,0x56,1
   139                           	dabs	1,0x2B3,0,_ANSEL3
   140                           	dabs	1,0x56,1
   141                           	dabs	1,0x2B2,0,_ANSEL2
   142                           	dabs	1,0x56,1
   143                           	dabs	1,0x2B1,0,_ANSEL1
   144                           	dabs	1,0x56,1
   145                           	dabs	1,0x2B0,0,_ANSEL0
   146                           	dabs	1,0x56,1
   147                           	dabs	1,0x2A8,0,_PWMM
   148                           	dabs	1,0x55,1
   149                           	dabs	1,0x28F,0,_PWMS1
   150                           	dabs	1,0x51,1
   151                           	dabs	1,0x28E,0,_PWMS0
   152                           	dabs	1,0x51,1
   153                           	dabs	1,0x28D,0,_TIMER2_9
   154                           	dabs	1,0x51,1
   155                           	dabs	1,0x28C,0,_TIMER2_8
   156                           	dabs	1,0x51,1
   157                           	dabs	1,0x28B,0,_T2LOAD_9
   158                           	dabs	1,0x51,1
   159                           	dabs	1,0x28A,0,_T2LOAD_8
   160                           	dabs	1,0x51,1
   161                           	dabs	1,0x289,0,_PWM1_9
   162                           	dabs	1,0x51,1
   163                           	dabs	1,0x288,0,_PWM1_8
   164                           	dabs	1,0x51,1
   165                           	dabs	1,0x287,0,_T2EN
   166                           	dabs	1,0x50,1
   167                           	dabs	1,0x286,0,_PWM1E
   168                           	dabs	1,0x50,1
   169                           	dabs	1,0x285,0,_SCS
   170                           	dabs	1,0x50,1
   171                           	dabs	1,0x284,0,_T2CK1
   172                           	dabs	1,0x50,1
   173                           	dabs	1,0x283,0,_T2CK0
   174                           	dabs	1,0x50,1
   175                           	dabs	1,0x282,0,_T2PR2
   176                           	dabs	1,0x50,1
   177                           	dabs	1,0x281,0,_T2PR1
   178                           	dabs	1,0x50,1
   179                           	dabs	1,0x280,0,_T2PR0
   180                           	dabs	1,0x50,1
   181                           	dabs	1,0x267,0,_T1EN
   182                           	dabs	1,0x4C,1
   183                           	dabs	1,0x266,0,_PWM0E
   184                           	dabs	1,0x4C,1
   185                           	dabs	1,0x265,0,_T0OSCEN
   186                           	dabs	1,0x4C,1
   187                           	dabs	1,0x264,0,_T1CK1
   188                           	dabs	1,0x4C,1
   189                           	dabs	1,0x263,0,_T1CK0
   190                           	dabs	1,0x4C,1
   191                           	dabs	1,0x262,0,_T1PR2
   192                           	dabs	1,0x4C,1
   193                           	dabs	1,0x261,0,_T1PR1
   194                           	dabs	1,0x4C,1
   195                           	dabs	1,0x260,0,_T1PR0
   196                           	dabs	1,0x4C,1
   197                           	dabs	1,0x25F,0,_T0CK
   198                           	dabs	1,0x4B,1
   199                           	dabs	1,0x25E,0,_T2IE
   200                           	dabs	1,0x4B,1
   201                           	dabs	1,0x25D,0,_T2IF
   202                           	dabs	1,0x4B,1
   203                           	dabs	1,0x25C,0,_POR
   204                           	dabs	1,0x4B,1
   205                           	dabs	1,0x25B,0,_BOR
   206                           	dabs	1,0x4B,1
   207                           	dabs	1,0x25A,0,_BOREN
   208                           	dabs	1,0x4B,1
   209                           	dabs	1,0x259,0,_T1IE
   210                           	dabs	1,0x4B,1
   211                           	dabs	1,0x258,0,_T1IF
   212                           	dabs	1,0x4B,1
   213                           	dabs	1,0x237,0,_TRISB7
   214                           	dabs	1,0x46,1
   215                           	dabs	1,0x236,0,_TRISB6
   216                           	dabs	1,0x46,1
   217                           	dabs	1,0x235,0,_TRISB5
   218                           	dabs	1,0x46,1
   219                           	dabs	1,0x234,0,_TRISB4
   220                           	dabs	1,0x46,1
   221                           	dabs	1,0x233,0,_TRISB3
   222                           	dabs	1,0x46,1
   223                           	dabs	1,0x232,0,_TRISB2
   224                           	dabs	1,0x46,1
   225                           	dabs	1,0x231,0,_TRISB1
   226                           	dabs	1,0x46,1
   227                           	dabs	1,0x230,0,_TRISB0
   228                           	dabs	1,0x46,1
   229                           	dabs	1,0x22F,0,_TRISA7
   230                           	dabs	1,0x45,1
   231                           	dabs	1,0x22E,0,_TRISA6
   232                           	dabs	1,0x45,1
   233                           	dabs	1,0x22D,0,_TRISA5
   234                           	dabs	1,0x45,1
   235                           	dabs	1,0x22C,0,_TRISA4
   236                           	dabs	1,0x45,1
   237                           	dabs	1,0x22B,0,_TRISA3
   238                           	dabs	1,0x45,1
   239                           	dabs	1,0x22A,0,_TRISA2
   240                           	dabs	1,0x45,1
   241                           	dabs	1,0x229,0,_TRISA1
   242                           	dabs	1,0x45,1
   243                           	dabs	1,0x228,0,_TRISA0
   244                           	dabs	1,0x45,1
   245                           	dabs	1,0x21F,0,_PHA7
   246                           	dabs	1,0x43,1
   247                           	dabs	1,0x21E,0,_PHA6
   248                           	dabs	1,0x43,1
   249                           	dabs	1,0x21D,0,_PHA5
   250                           	dabs	1,0x43,1
   251                           	dabs	1,0x21C,0,_PHA4
   252                           	dabs	1,0x43,1
   253                           	dabs	1,0x21B,0,_PHA3
   254                           	dabs	1,0x43,1
   255                           	dabs	1,0x21A,0,_PHA2
   256                           	dabs	1,0x43,1
   257                           	dabs	1,0x219,0,_PHA1
   258                           	dabs	1,0x43,1
   259                           	dabs	1,0x218,0,_PHA0
   260                           	dabs	1,0x43,1
   261                           	dabs	1,0x217,0,_PDA7
   262                           	dabs	1,0x42,1
   263                           	dabs	1,0x216,0,_PDA6
   264                           	dabs	1,0x42,1
   265                           	dabs	1,0x215,0,_PDA5
   266                           	dabs	1,0x42,1
   267                           	dabs	1,0x214,0,_PDA4
   268                           	dabs	1,0x42,1
   269                           	dabs	1,0x213,0,_PDA3
   270                           	dabs	1,0x42,1
   271                           	dabs	1,0x212,0,_PDA2
   272                           	dabs	1,0x42,1
   273                           	dabs	1,0x211,0,_PDA1
   274                           	dabs	1,0x42,1
   275                           	dabs	1,0x210,0,_PDA0
   276                           	dabs	1,0x42,1
   277                           	dabs	1,0x20F,0,_WDTEN
   278                           	dabs	1,0x41,1
   279                           	dabs	1,0x20E,0,_INTEDG
   280                           	dabs	1,0x41,1
   281                           	dabs	1,0x20D,0,_T0CS
   282                           	dabs	1,0x41,1
   283                           	dabs	1,0x20C,0,_T0SE
   284                           	dabs	1,0x41,1
   285                           	dabs	1,0x20B,0,_PSA
   286                           	dabs	1,0x41,1
   287                           	dabs	1,0x20A,0,_PS2
   288                           	dabs	1,0x41,1
   289                           	dabs	1,0x209,0,_PS1
   290                           	dabs	1,0x41,1
   291                           	dabs	1,0x208,0,_PS0
   292                           	dabs	1,0x41,1
   293                           	dabs	1,0x201,0,_MTP_CLEN
   294                           	dabs	1,0x40,1
   295                           	dabs	1,0x200,0,_RD_FLAG
   296                           	dabs	1,0x40,1
   297                           	dabs	1,0xBE,1,_OCCUPY0BE
   298                           	dabs	1,0xBF,1,_OCCUPY0BF
   299                           	dabs	1,0x3E,2
   300  0011                     
   301                           	psect	idataBANK0
   302  0382                     __pidataBANK0:	
   303                           ;
   304                           ;
   305                           ;
   306                           ;
   307                           ;
   308                           ;
   309                           ;
   310                           ;
   311                           ;
   312                           ;
   313                           ;
   314                           ;
   315                           ;
   316                           ;
   317                           ;
   318                           ;
   319                           ;
   320                           ;
   321                           ;
   322                           ;
   323                           ;
   324                           ;
   325                           ;
   326                           ;
   327                           ;
   328                           ;
   329                           ;
   330                           ;
   331                           ;
   332                           ;
   333                           ;
   334                           ;
   335                           ;
   336                           ;
   337                           ;
   338                           ;
   339                           
   340                           
   341                           ;initializer for _shutdown_timer
   342  0382  3484               	retlw	132
   343  0383  3403               	retlw	3
   344                           
   345                           ;initializer for key_tick@key_released
   346  0384  3401               	retlw	1
   347                           
   348                           	psect	strings
   349  0300                     __pstrings:	
   350  0300                     stringtab:	
   351  0300                     __stringtab:	
   352  0300                     stringcode:	
   353  0300                     stringdir:	
   354                           ;	String table - string pointers are 1 byte each
   355                           
   356  0300  3003               	movlw	high stringdir
   357  0301  008A               	movwf	10
   358  0302  0804               	movf	4,w
   359  0303  0A84               	incf	4,f
   360  0304  0782               	addwf	2,f
   361  0305                     __stringbase:	
   362  0305  3400               	retlw	0
   363  0306                     __end_of__stringtab:	
   364  0306                     _pwm_map:	
   365  0306  34D2               	retlw	210
   366  0307  3400               	retlw	0
   367  0308  34B9               	retlw	185
   368  0309  3400               	retlw	0
   369  030A  34F6               	retlw	246
   370  030B  3400               	retlw	0
   371  030C                     __end_of_pwm_map:		;_RD_FLAG
   372  000D                     _PHCON	set	13
   373  000B                     _PDCON	set	11
   374  0009                     _IOCB	set	9
   375  0007                     _IOCA	set	7
   376  0006                     _PORTB	set	6
   377  0005                     _PORTA	set	5
   378  0004                     _FSR	set	4
   379  0001                     _T0	set	1
   380  0000                     _INDF	set	0
   381  0077                     _GIE	set	119
   382  0073                     _T0IF	set	115
   383  0070                     _T0IE	set	112
   384  0030                     _PORTB0	set	48
   385  002F                     _PORTA7	set	47
   386  002E                     _PORTA6	set	46
   387  002C                     _PORTA4	set	44
   388                           
   389                           	psect	cinit
   390  001A                     start_initialization:	
   391  001A                     __initialization:	
   392                           ; #config settings
   393                           
   394  001A                     end_of_initialization:	
   395  001A                     __end_of__initialization:	
   396                           ;End of C runtime variable initialization code
   397                           
   398  001A  0183               	clrf	3
   399  001B  281C               	ljmp	_main	;jump to C main() function
   400                           
   401                           	psect	bssBANK0
   402  0010                     __pbssBANK0:	
   403  0010                     _mode_params:	
   404  0010                     	ds	7
   405  0017                     _mode_runtime:	
   406  0017                     	ds	5
   407  001C                     System_TimerHandler@i:	
   408  001C                     	ds	2
   409  001E                     _current_speed:	
   410  001E                     	ds	1
   411  001F                     _current_mode:	
   412  001F                     	ds	1
   413  0020                     _current_dir:	
   414  0020                     	ds	1
   415  0021                     _sys_state:	
   416  0021                     	ds	1
   417  0022                     key_tick@last_key:	
   418  0022                     	ds	1
   419  0023                     key_tick@stable_cnt:	
   420  0023                     	ds	1
   421  0024                     _key_mode:	
   422  0024                     	ds	1
   423  0025                     _final_key:	
   424  0025                     	ds	1
   425  0026                     _key:	
   426  0026                     	ds	1
   427  0027                     hardware_set_half_power@pwm_value:	
   428  0027                     	ds	1
   429  0028                     _current_heat_mode:	
   430  0028                     	ds	1
   431  0029                     _pwm_enabled:	
   432  0029                     	ds	1
   433                           
   434                           	psect	dataBANK0
   435  0034                     __pdataBANK0:	
   436  0034                     _shutdown_timer:	
   437  0034                     	ds	2
   438  0036                     key_tick@key_released:	
   439  0036                     	ds	1
   440                           
   441                           	psect	cstackBANK1h
   442  00C0                     __pcstackBANK1h:	
   443  00C0                     ?___awmod:	
   444  00C0                     ___awmod@divisor:	
   445                           
   446                           ; 2 bytes @ 0x0
   447                           ; 2 bytes @ 0x0
   448  00C0                     	ds	2
   449  00C2                     ___awmod@dividend:	
   450                           
   451                           ; 2 bytes @ 0x2
   452  00C2                     	ds	2
   453  00C4                     main@current:	
   454                           
   455                           ; 1 bytes @ 0x4
   456  00C4                     	ds	1
   457                           
   458                           	psect	cstackCOMMON
   459  0000                     __pcstackCOMMON:	
   460  0000                     ??_hardware_pwm_control:	
   461  0000                     ??_hardware_stop_heat:	
   462  0000                     ??_Motor_Init:	
   463                           ; 1 bytes @ 0x0
   464                           
   465  0000                     ??_Motor_Start:	
   466                           ; 1 bytes @ 0x0
   467                           
   468  0000                     ??_Motor_Stop:	
   469                           ; 1 bytes @ 0x0
   470                           
   471  0000                     ??_Motor_ToggleDirection:	
   472                           ; 1 bytes @ 0x0
   473                           
   474  0000                     ??_Motor_GetMode:	
   475                           ; 1 bytes @ 0x0
   476                           
   477  0000                     ??_Motor_SetMode:	
   478                           ; 1 bytes @ 0x0
   479                           
   480  0000                     ??_Motor_ToggleSpeed:	
   481                           ; 1 bytes @ 0x0
   482                           
   483  0000                     ??_Motor_Process:	
   484                           ; 1 bytes @ 0x0
   485                           
   486  0000                     ??_nPWM1:	
   487                           ; 1 bytes @ 0x0
   488                           
   489  0000                     ??_nPWM2:	
   490                           ; 1 bytes @ 0x0
   491                           
   492  0000                     ??_hardware_set_heat:	
   493                           ; 1 bytes @ 0x0
   494                           
   495  0000                     ??_hardware_set_half_power:	
   496                           ; 1 bytes @ 0x0
   497                           
   498  0000                     ??_Heat_Init:	
   499                           ; 1 bytes @ 0x0
   500                           
   501  0000                     ??_Heat_Start:	
   502                           ; 1 bytes @ 0x0
   503                           
   504  0000                     ??_Heat_Stop:	
   505                           ; 1 bytes @ 0x0
   506                           
   507  0000                     ??_Heat_SetMode:	
   508                           ; 1 bytes @ 0x0
   509                           
   510  0000                     ??_Heat_Toggle:	
   511                           ; 1 bytes @ 0x0
   512                           
   513  0000                     ??_HEAT_EnergySave:	
   514                           ; 1 bytes @ 0x0
   515                           
   516  0000                     ??_inital:	
   517                           ; 1 bytes @ 0x0
   518                           
   519  0000                     ??_T0_sysinitial:	
   520                           ; 1 bytes @ 0x0
   521                           
   522  0000                     ??_ramInitial:	
   523                           ; 1 bytes @ 0x0
   524                           
   525  0000                     ??_keymode0_configuration:	
   526                           ; 1 bytes @ 0x0
   527                           
   528  0000                     ??_keymode1_configuration:	
   529                           ; 1 bytes @ 0x0
   530                           
   531  0000                     ??_keymode2_configuration:	
   532                           ; 1 bytes @ 0x0
   533                           
   534  0000                     ??_keymode3_configuration:	
   535                           ; 1 bytes @ 0x0
   536                           
   537  0000                     ??_DelayUs2x:	
   538                           ; 1 bytes @ 0x0
   539                           
   540  0000                     ??_key_scan:	
   541                           ; 1 bytes @ 0x0
   542                           
   543  0000                     ??_key_tick:	
   544                           ; 1 bytes @ 0x0
   545                           
   546  0000                     ??_DelayMs:	
   547                           ; 1 bytes @ 0x0
   548                           
   549  0000                     ??_main:	
   550                           ; 1 bytes @ 0x0
   551                           
   552  0000                     ??_System_GetState:	
   553                           ; 1 bytes @ 0x0
   554                           
   555  0000                     ??_System_TimerHandler:	
   556                           ; 1 bytes @ 0x0
   557                           
   558  0000                     ??_hardware_stop_motor:	
   559                           ; 1 bytes @ 0x0
   560                           
   561  0000                     ??_hardware_set_motor:	
   562                           ; 1 bytes @ 0x0
   563                           
   564  0000                     ??___awmod:	
   565                           ; 1 bytes @ 0x0
   566                           
   567  0000                     ??i1_hardware_pwm_control:	
   568                           ; 1 bytes @ 0x0
   569                           
   570  0000                     ??i1_hardware_stop_heat:	
   571                           ; 1 bytes @ 0x0
   572                           
   573  0000                     ??i1_Heat_Stop:	
   574                           ; 1 bytes @ 0x0
   575                           
   576  0000                     ??i1_DelayUs2x:	
   577                           ; 1 bytes @ 0x0
   578                           
   579  0000                     ??i1_hardware_stop_motor:	
   580                           ; 1 bytes @ 0x0
   581                           
   582  0000                     ??i1_hardware_set_motor:	
   583                           ; 1 bytes @ 0x0
   584                           
   585  0000                     ??i1_Motor_Start:	
   586                           ; 1 bytes @ 0x0
   587                           
   588  0000                     ??i1_Motor_Stop:	
   589                           ; 1 bytes @ 0x0
   590                           
   591  0000                     ??i1_Motor_ToggleDirection:	
   592                           ; 1 bytes @ 0x0
   593                           
   594  0000                     ??i1_nPWM1:	
   595                           ; 1 bytes @ 0x0
   596                           
   597  0000                     ??i1_nPWM2:	
   598                           ; 1 bytes @ 0x0
   599                           
   600                           
   601                           	psect	cstackBANK0
   602  002A                     __pcstackBANK0:	
   603                           ; 1 bytes @ 0x0
   604                           
   605  002A                     ?_hardware_pwm_control:	
   606                           ; 1 bytes @ 0x0
   607                           
   608  002A                     ?_hardware_stop_heat:	
   609  002A                     ?_Motor_Init:	
   610                           ; 1 bytes @ 0x0
   611                           
   612  002A                     ?_Motor_Start:	
   613                           ; 1 bytes @ 0x0
   614                           
   615  002A                     ?_Motor_Stop:	
   616                           ; 1 bytes @ 0x0
   617                           
   618  002A                     ?_Motor_ToggleDirection:	
   619                           ; 1 bytes @ 0x0
   620                           
   621  002A                     ?_Motor_GetMode:	
   622                           ; 1 bytes @ 0x0
   623                           
   624  002A                     ?_Motor_SetMode:	
   625                           ; 1 bytes @ 0x0
   626                           
   627  002A                     ?_Motor_ToggleSpeed:	
   628                           ; 1 bytes @ 0x0
   629                           
   630  002A                     ?_Motor_Process:	
   631                           ; 1 bytes @ 0x0
   632                           
   633  002A                     ?_nPWM1:	
   634                           ; 1 bytes @ 0x0
   635                           
   636  002A                     ?_nPWM2:	
   637                           ; 1 bytes @ 0x0
   638                           
   639  002A                     ?_hardware_set_heat:	
   640                           ; 1 bytes @ 0x0
   641                           
   642  002A                     ?_hardware_set_half_power:	
   643                           ; 1 bytes @ 0x0
   644                           
   645  002A                     ?_Heat_Init:	
   646                           ; 1 bytes @ 0x0
   647                           
   648  002A                     ?_Heat_Start:	
   649                           ; 1 bytes @ 0x0
   650                           
   651  002A                     ?_Heat_Stop:	
   652                           ; 1 bytes @ 0x0
   653                           
   654  002A                     ?_Heat_SetMode:	
   655                           ; 1 bytes @ 0x0
   656                           
   657  002A                     ?_Heat_Toggle:	
   658                           ; 1 bytes @ 0x0
   659                           
   660  002A                     ?_HEAT_EnergySave:	
   661                           ; 1 bytes @ 0x0
   662                           
   663  002A                     ?_inital:	
   664                           ; 1 bytes @ 0x0
   665                           
   666  002A                     ?_T0_sysinitial:	
   667                           ; 1 bytes @ 0x0
   668                           
   669  002A                     ?_ramInitial:	
   670                           ; 1 bytes @ 0x0
   671                           
   672  002A                     ?_keymode0_configuration:	
   673                           ; 1 bytes @ 0x0
   674                           
   675  002A                     ?_keymode1_configuration:	
   676                           ; 1 bytes @ 0x0
   677                           
   678  002A                     ?_keymode2_configuration:	
   679                           ; 1 bytes @ 0x0
   680                           
   681  002A                     ?_keymode3_configuration:	
   682                           ; 1 bytes @ 0x0
   683                           
   684  002A                     ?_DelayUs2x:	
   685                           ; 1 bytes @ 0x0
   686                           
   687  002A                     ?_key_scan:	
   688                           ; 1 bytes @ 0x0
   689                           
   690  002A                     ?_key_tick:	
   691                           ; 1 bytes @ 0x0
   692                           
   693  002A                     ?_main:	
   694                           ; 1 bytes @ 0x0
   695                           
   696  002A                     ?_System_GetState:	
   697                           ; 1 bytes @ 0x0
   698                           
   699  002A                     ?_System_TimerHandler:	
   700                           ; 1 bytes @ 0x0
   701                           
   702  002A                     ?_Timer0_Isr:	
   703                           ; 1 bytes @ 0x0
   704                           
   705  002A                     ?_hardware_stop_motor:	
   706                           ; 1 bytes @ 0x0
   707                           
   708  002A                     ?i1_hardware_pwm_control:	
   709                           ; 1 bytes @ 0x0
   710                           
   711  002A                     ?i1_hardware_stop_heat:	
   712                           ; 1 bytes @ 0x0
   713                           
   714  002A                     ?i1_Heat_Stop:	
   715                           ; 1 bytes @ 0x0
   716                           
   717  002A                     ?i1_DelayUs2x:	
   718                           ; 1 bytes @ 0x0
   719                           
   720  002A                     ?i1_hardware_stop_motor:	
   721                           ; 1 bytes @ 0x0
   722                           
   723  002A                     ?i1_Motor_Start:	
   724                           ; 1 bytes @ 0x0
   725                           
   726  002A                     ?i1_Motor_Stop:	
   727                           ; 1 bytes @ 0x0
   728                           
   729  002A                     ?i1_Motor_ToggleDirection:	
   730                           ; 1 bytes @ 0x0
   731                           
   732  002A                     ?i1_nPWM1:	
   733                           ; 1 bytes @ 0x0
   734                           
   735  002A                     ?i1_nPWM2:	
   736                           ; 1 bytes @ 0x0
   737                           
   738  002A                     i1hardware_pwm_control@enable:	
   739                           ; 1 bytes @ 0x0
   740                           
   741  002A                     i1DelayUs2x@t:	
   742                           ; 1 bytes @ 0x0
   743                           
   744  002A                     i1nPWM1@n:	
   745                           ; 1 bytes @ 0x0
   746                           
   747  002A                     i1nPWM2@m:	
   748                           ; 1 bytes @ 0x0
   749                           
   750                           
   751                           ; 1 bytes @ 0x0
   752                           ; 1 bytes @ 0x0
   753  002A                     	ds	1
   754  002B                     ?i1_hardware_set_motor:	
   755  002B                     i1hardware_set_motor@speed:	
   756                           
   757                           ; 1 bytes @ 0x1
   758                           ; 1 bytes @ 0x1
   759  002B                     	ds	1
   760  002C                     i1hardware_set_motor@dir:	
   761                           
   762                           ; 1 bytes @ 0x2
   763  002C                     	ds	1
   764  002D                     ??_Timer0_Isr:	
   765                           
   766                           ; 1 bytes @ 0x3
   767  002D                     	ds	4
   768  0031                     hardware_pwm_control@enable:	
   769  0031                     Heat_SetMode@newmode:	
   770  0031                     DelayUs2x@t:	
   771                           ; 1 bytes @ 0x7
   772                           
   773  0031                     Motor_SetMode@new_mode:	
   774                           ; 1 bytes @ 0x7
   775                           
   776  0031                     nPWM1@n:	
   777                           ; 1 bytes @ 0x7
   778                           
   779  0031                     nPWM2@m:	
   780                           ; 1 bytes @ 0x7
   781                           
   782  0031                     ___awmod@counter:	
   783                           ; 1 bytes @ 0x7
   784                           
   785                           
   786                           ; 1 bytes @ 0x7
   787                           ; 1 bytes @ 0x7
   788  0031                     	ds	1
   789  0032                     ?_DelayMs:	
   790  0032                     ?_hardware_set_motor:	
   791  0032                     hardware_set_heat@current_heat_mode:	
   792                           ; 1 bytes @ 0x8
   793                           
   794  0032                     hardware_set_motor@speed:	
   795                           ; 1 bytes @ 0x8
   796                           
   797  0032                     ___awmod@sign:	
   798                           ; 1 bytes @ 0x8
   799                           
   800  0032                     DelayMs@t:	
   801                           ; 1 bytes @ 0x8
   802                           
   803                           
   804                           ; 1 bytes @ 0x8
   805                           ; 2 bytes @ 0x8
   806  0032                     	ds	1
   807  0033                     hardware_set_motor@dir:	
   808                           
   809                           ; 1 bytes @ 0x9
   810  0033                     	ds	1
   811                           
   812                           	psect	maintext
   813  001C                     __pmaintext:	
   814  001C                     _main:	
   815 ;;
   816 ;;Main: autosize = 0, tempsize = 0, incstack = 0, save=0
   817 ;;
   818 ;; *************** function _main *****************
   819 ;; Defined at:
   820 ;;		line 30 in file "main.c"
   821 ;; Parameters:    Size  Location     Type
   822 ;;		None
   823 ;; Auto vars:     Size  Location     Type
   824 ;;  current         1    4[BANK1h] enum E467
   825 ;; Return value:  Size  Location     Type
   826 ;;                  1    wreg      void 
   827 ;; Registers used:
   828 ;;		wreg, fsr0l, fsr0h, status,2, status,0, pclath, cstack
   829 ;; Tracked objects:
   830 ;;		On entry : B00/0
   831 ;;		On exit  : 100/0
   832 ;;		Unchanged: 0/0
   833 ;; Data sizes:     COMMON   BANK0  BANK1h  BANK1l
   834 ;;      Params:         0       0       0       0
   835 ;;      Locals:         0       0       1       0
   836 ;;      Temps:          0       0       0       0
   837 ;;      Totals:         0       0       1       0
   838 ;;Total ram usage:        1 bytes
   839 ;; Hardware stack levels required when called:   10
   840 ;; This function calls:
   841 ;;		_DelayMs
   842 ;;		_HEAT_EnergySave
   843 ;;		_Heat_Init
   844 ;;		_Heat_Start
   845 ;;		_Heat_Stop
   846 ;;		_Heat_Toggle
   847 ;;		_Motor_GetMode
   848 ;;		_Motor_Init
   849 ;;		_Motor_SetMode
   850 ;;		_Motor_Start
   851 ;;		_Motor_Stop
   852 ;;		_Motor_ToggleDirection
   853 ;;		_Motor_ToggleSpeed
   854 ;;		_T0_sysinitial
   855 ;;		_inital
   856 ;;		_ramInitial
   857 ;; This function is called by:
   858 ;;		Startup code after reset
   859 ;; This function uses a non-reentrant model
   860 ;;
   861                           ;psect for function _main
   862                           
   863                           
   864                           ;main.c: 33: ramInitial();
   865                           ;incstack = 0
   866 ;; hardware stack exceeded
   867                           ; Regs used in _main: [wreg-fsr0h+status,2+status,0+pclath+cstack]
   868  001C  225B               	fcall	_ramInitial
   869                           
   870                           ;main.c: 34: inital();
   871  001D  22EF               	fcall	_inital
   872                           
   873                           ;main.c: 35: T0_sysinitial();
   874  001E  2335               	fcall	_T0_sysinitial
   875                           
   876                           ;main.c: 38: DelayMs(100);
   877  001F  3064               	movlw	100
   878  0020  00B2               	movwf	DelayMs@t
   879  0021  01B3               	clrf	DelayMs@t+1
   880  0022  22C1               	fcall	_DelayMs
   881  0023                     l4905:	
   882                           
   883                           ;main.c: 41: {
   884                           ;main.c: 42: if (final_key != 0)
   885  0023  0825               	movf	_final_key,w
   886  0024  1D03               	btfss	3,2
   887  0025  2864               	goto	l4965
   888  0026  2823               	goto	l4905
   889  0027                     l4909:	
   890                           
   891                           ;main.c: 48: if (sys_state==SYSTEM_OFF)
   892  0027  0821               	movf	_sys_state,w
   893  0028  1D03               	btfss	3,2
   894  0029  2831               	goto	l4919
   895                           
   896                           ;main.c: 49: {
   897                           ;main.c: 50: sys_state=SYSTEM_ON;
   898  002A  01A1               	clrf	_sys_state
   899  002B  0AA1               	incf	_sys_state,f
   900                           
   901                           ;main.c: 51: Motor_Init();
   902  002C  230C               	fcall	_Motor_Init
   903                           
   904                           ;main.c: 52: Motor_Start();
   905  002D  2372               	fcall	_Motor_Start
   906                           
   907                           ;main.c: 53: Heat_Init();
   908  002E  2385               	fcall	_Heat_Init
   909                           
   910                           ;main.c: 54: Heat_Start();
   911  002F  2393               	fcall	_Heat_Start
   912                           
   913                           ;main.c: 55: }
   914  0030  2877               	goto	l4967
   915  0031                     l4919:	
   916                           
   917                           ;main.c: 56: else
   918                           ;main.c: 57: {
   919                           ;main.c: 58: sys_state=SYSTEM_OFF;
   920  0031  01A1               	clrf	_sys_state
   921                           
   922                           ;main.c: 59: Motor_Stop();
   923  0032  2399               	fcall	_Motor_Stop
   924                           
   925                           ;main.c: 60: Heat_Stop();
   926  0033  235E               	fcall	_Heat_Stop
   927  0034  2877               	goto	l4967
   928  0035                     l4925:	
   929                           
   930                           ;main.c: 64: if (sys_state == SYSTEM_ON)
   931  0035  0B21               	decfsz	_sys_state,w
   932  0036  2877               	goto	l4967
   933                           
   934                           ;main.c: 65: {
   935                           ;main.c: 66: Heat_Toggle();
   936  0037  2247               	fcall	_Heat_Toggle
   937  0038  2877               	goto	l4967
   938  0039                     l4929:	
   939                           
   940                           ;main.c: 70: if (sys_state == SYSTEM_ON)
   941  0039  0B21               	decfsz	_sys_state,w
   942  003A  2877               	goto	l4967
   943                           
   944                           ;main.c: 71: {
   945                           ;main.c: 72: Motor_ToggleDirection();
   946  003B  2323               	fcall	_Motor_ToggleDirection
   947                           
   948                           ;main.c: 74: if (Motor_GetMode() != MODE_INITIAL)
   949  003C  2391               	fcall	_Motor_GetMode
   950  003D  3A00               	xorlw	0
   951  003E  1903               	btfsc	3,2
   952  003F  2842               	goto	l1988
   953                           
   954                           ;main.c: 75: {
   955                           ;main.c: 76: Motor_SetMode(MODE_INITIAL);
   956  0040  3000               	movlw	0
   957  0041  211A               	fcall	_Motor_SetMode
   958  0042                     l1988:	
   959                           
   960                           ;main.c: 77: }
   961                           ;main.c: 78: Motor_Start();
   962  0042  2372               	fcall	_Motor_Start
   963  0043  2877               	goto	l4967
   964  0044                     l4937:	
   965                           
   966                           ;main.c: 82: if (sys_state == SYSTEM_ON)
   967  0044  0B21               	decfsz	_sys_state,w
   968  0045  2877               	goto	l4967
   969                           
   970                           ;main.c: 83: {
   971                           ;main.c: 84: HEAT_EnergySave();
   972  0046  22E1               	fcall	_HEAT_EnergySave
   973  0047  2877               	goto	l4967
   974  0048                     l4941:	
   975                           
   976                           ;main.c: 88: if (sys_state == SYSTEM_ON)
   977  0048  0B21               	decfsz	_sys_state,w
   978  0049  2877               	goto	l4967
   979                           
   980                           ;main.c: 89: {
   981                           ;main.c: 91: Motor_ToggleSpeed();
   982  004A  226C               	fcall	_Motor_ToggleSpeed
   983  004B  2877               	goto	l4967
   984  004C                     l4945:	
   985                           
   986                           ;main.c: 96: if (sys_state == SYSTEM_ON)
   987  004C  0B21               	decfsz	_sys_state,w
   988  004D  2877               	goto	l4967
   989                           
   990                           ;main.c: 97: {
   991                           ;main.c: 99: Motor_Stop();
   992  004E  2399               	fcall	_Motor_Stop
   993                           
   994                           ;main.c: 102: MotorMode current = Motor_GetMode();
   995  004F  2391               	fcall	_Motor_GetMode
   996  0050  1683               	bsf	3,5	;RP0=1, select bank1
   997  0051  00C4               	movwf	main@current^(0+128)
   998  0052  3003               	movlw	3
   999                           
  1000                           ;main.c: 103: current = (MotorMode)((current + 1) % 4);
  1001  0053  0AC4               	incf	main@current^(0+128),f
  1002  0054  05C4               	andwf	main@current^(0+128),f
  1003                           
  1004                           ;main.c: 104: if (current == MODE_INITIAL)
  1005  0055  0844               	movf	main@current^(0+128),w
  1006  0056  1D03               	btfss	3,2
  1007  0057  285A               	goto	l4957
  1008                           
  1009                           ;main.c: 105: {
  1010                           ;main.c: 106: current = MODE_A;
  1011  0058  01C4               	clrf	main@current^(0+128)
  1012  0059  0AC4               	incf	main@current^(0+128),f
  1013  005A                     l4957:	
  1014                           
  1015                           ;main.c: 107: }
  1016                           ;main.c: 110: Motor_SetMode(current);
  1017  005A  0844               	movf	main@current^(0+128),w
  1018  005B  211A               	fcall	_Motor_SetMode
  1019                           
  1020                           ;main.c: 113: DelayMs(1000);
  1021  005C  30E8               	movlw	232
  1022  005D  00B2               	movwf	DelayMs@t
  1023  005E  3003               	movlw	3
  1024  005F  00B3               	movwf	DelayMs@t+1
  1025  0060  22C1               	fcall	_DelayMs
  1026                           
  1027                           ;main.c: 114: Motor_ToggleDirection();
  1028  0061  2323               	fcall	_Motor_ToggleDirection
  1029                           
  1030                           ;main.c: 115: Motor_Start();
  1031  0062  2372               	fcall	_Motor_Start
  1032  0063  2877               	goto	l4967
  1033  0064                     l4965:	
  1034  0064  0825               	movf	_final_key,w
  1035                           
  1036                           ; Switch size 1, requested type "space"
  1037                           ; Number of cases is 6, Range of values is 1 to 12
  1038                           ; switch strategies available:
  1039                           ; Name         Instructions Cycles
  1040                           ; simple_byte           19    10 (average)
  1041                           ; direct_byte           21     9 (fixed)
  1042                           ; jumptable            263     9 (fixed)
  1043                           ;	Chosen strategy is simple_byte
  1044  0065  3A01               	xorlw	1	; case 1
  1045  0066  1903               	btfsc	3,2
  1046  0067  284C               	goto	l4945
  1047  0068  3A03               	xorlw	3	; case 2
  1048  0069  1903               	btfsc	3,2
  1049  006A  2844               	goto	l4937
  1050  006B  3A07               	xorlw	7	; case 5
  1051  006C  1903               	btfsc	3,2
  1052  006D  2835               	goto	l4925
  1053  006E  3A0D               	xorlw	13	; case 8
  1054  006F  1903               	btfsc	3,2
  1055  0070  2848               	goto	l4941
  1056  0071  3A02               	xorlw	2	; case 10
  1057  0072  1903               	btfsc	3,2
  1058  0073  2839               	goto	l4929
  1059  0074  3A06               	xorlw	6	; case 12
  1060  0075  1903               	btfsc	3,2
  1061  0076  2827               	goto	l4909
  1062  0077                     l4967:	
  1063                           
  1064                           ;main.c: 119: final_key=0;
  1065  0077  01A5               	clrf	_final_key
  1066  0078  2823               	goto	l4905
  1067  0079                     __end_of_main:	
  1068                           
  1069                           	psect	text1
  1070  025B                     __ptext1:	
  1071  025B                     _ramInitial:	
  1072 ;; *************** function _ramInitial *****************
  1073 ;; Defined at:
  1074 ;;		line 73 in file "inital.c"
  1075 ;; Parameters:    Size  Location     Type
  1076 ;;		None
  1077 ;; Auto vars:     Size  Location     Type
  1078 ;;		None
  1079 ;; Return value:  Size  Location     Type
  1080 ;;                  1    wreg      void 
  1081 ;; Registers used:
  1082 ;;		wreg, status,2, status,0
  1083 ;; Tracked objects:
  1084 ;;		On entry : B00/0
  1085 ;;		On exit  : B00/0
  1086 ;;		Unchanged: A00/0
  1087 ;; Data sizes:     COMMON   BANK0  BANK1h  BANK1l
  1088 ;;      Params:         0       0       0       0
  1089 ;;      Locals:         0       0       0       0
  1090 ;;      Temps:          0       0       0       0
  1091 ;;      Totals:         0       0       0       0
  1092 ;;Total ram usage:        0 bytes
  1093 ;; Hardware stack levels used:    1
  1094 ;; Hardware stack levels required when called:    6
  1095 ;; This function calls:
  1096 ;;		Nothing
  1097 ;; This function is called by:
  1098 ;;		_main
  1099 ;; This function uses a non-reentrant model
  1100 ;;
  1101                           ;psect for function _ramInitial
  1102                           
  1103                           
  1104                           ;inital.c: 75: FSR=0X3f;
  1105                           ;incstack = 0
  1106                           ; Regs used in _ramInitial: [wreg+status,2+status,0]
  1107  025B  303F               	movlw	63
  1108  025C  0084               	movwf	4	;volatile
  1109  025D                     l4861:	
  1110                           
  1111                           ;inital.c: 77: INDF=0;
  1112  025D  0180               	clrf	0	;volatile
  1113                           
  1114                           ;inital.c: 78: FSR--;
  1115  025E  0384               	decf	4,f	;volatile
  1116                           
  1117                           ;inital.c: 79: }while(FSR != 0x0f);
  1118  025F  300F               	movlw	15
  1119  0260  0604               	xorwf	4,w	;volatile
  1120  0261  1D03               	btfss	3,2
  1121  0262  2A5D               	goto	l4861
  1122                           
  1123                           ;inital.c: 81: FSR=0Xdf;
  1124  0263  30DF               	movlw	223
  1125  0264  0084               	movwf	4	;volatile
  1126  0265                     l4869:	
  1127                           
  1128                           ;inital.c: 83: INDF=0;
  1129  0265  0180               	clrf	0	;volatile
  1130                           
  1131                           ;inital.c: 84: FSR--;
  1132  0266  0384               	decf	4,f	;volatile
  1133                           
  1134                           ;inital.c: 85: }while(FSR != 0x8f);
  1135  0267  308F               	movlw	143
  1136  0268  0604               	xorwf	4,w	;volatile
  1137  0269  1903               	btfsc	3,2
  1138  026A  0008               	return
  1139  026B  2A65               	goto	l4869
  1140  026C                     __end_of_ramInitial:	
  1141                           
  1142                           	psect	text2
  1143  02EF                     __ptext2:	
  1144  02EF                     _inital:	
  1145 ;; *************** function _inital *****************
  1146 ;; Defined at:
  1147 ;;		line 13 in file "inital.c"
  1148 ;; Parameters:    Size  Location     Type
  1149 ;;		None
  1150 ;; Auto vars:     Size  Location     Type
  1151 ;;		None
  1152 ;; Return value:  Size  Location     Type
  1153 ;;                  1    wreg      void 
  1154 ;; Registers used:
  1155 ;;		wreg, status,2
  1156 ;; Tracked objects:
  1157 ;;		On entry : B00/0
  1158 ;;		On exit  : B00/0
  1159 ;;		Unchanged: A00/0
  1160 ;; Data sizes:     COMMON   BANK0  BANK1h  BANK1l
  1161 ;;      Params:         0       0       0       0
  1162 ;;      Locals:         0       0       0       0
  1163 ;;      Temps:          0       0       0       0
  1164 ;;      Totals:         0       0       0       0
  1165 ;;Total ram usage:        0 bytes
  1166 ;; Hardware stack levels used:    1
  1167 ;; Hardware stack levels required when called:    6
  1168 ;; This function calls:
  1169 ;;		Nothing
  1170 ;; This function is called by:
  1171 ;;		_main
  1172 ;; This function uses a non-reentrant model
  1173 ;;
  1174                           ;psect for function _inital
  1175                           
  1176                           
  1177                           ;inital.c: 15: ANSELL=0X00;
  1178                           ;incstack = 0
  1179                           ; Regs used in _inital: [wreg+status,2]
  1180  02EF  01D6               	clrf	86	;volatile
  1181                           
  1182                           ;inital.c: 18: TRISA=0XFF;
  1183  02F0  30FF               	movlw	255
  1184  02F1  00C5               	movwf	69	;volatile
  1185                           
  1186                           ;inital.c: 19: TRISB=0X00;
  1187  02F2  01C6               	clrf	70	;volatile
  1188                           
  1189                           ;inital.c: 22: PORTA=0XFF;
  1190  02F3  0085               	movwf	5	;volatile
  1191                           
  1192                           ;inital.c: 23: PORTB=0X00;
  1193  02F4  0186               	clrf	6	;volatile
  1194                           
  1195                           ;inital.c: 26: PHCON1=0X00;
  1196  02F5  01C3               	clrf	67	;volatile
  1197                           
  1198                           ;inital.c: 27: PHCON=0XFF;
  1199  02F6  008D               	movwf	13	;volatile
  1200                           
  1201                           ;inital.c: 30: PDCON1=0xFF;
  1202  02F7  00C2               	movwf	66	;volatile
  1203                           
  1204                           ;inital.c: 31: PDCON=0xFF;
  1205  02F8  008B               	movwf	11	;volatile
  1206                           
  1207                           ;inital.c: 34: IOCA=0X00;
  1208  02F9  0187               	clrf	7	;volatile
  1209                           
  1210                           ;inital.c: 35: IOCB=0X00;
  1211  02FA  0189               	clrf	9	;volatile
  1212  02FB  0008               	return
  1213  02FC                     __end_of_inital:	
  1214                           
  1215                           	psect	text3
  1216  0335                     __ptext3:	
  1217  0335                     _T0_sysinitial:	
  1218 ;; *************** function _T0_sysinitial *****************
  1219 ;; Defined at:
  1220 ;;		line 56 in file "inital.c"
  1221 ;; Parameters:    Size  Location     Type
  1222 ;;		None
  1223 ;; Auto vars:     Size  Location     Type
  1224 ;;		None
  1225 ;; Return value:  Size  Location     Type
  1226 ;;                  1    wreg      void 
  1227 ;; Registers used:
  1228 ;;		wreg
  1229 ;; Tracked objects:
  1230 ;;		On entry : B00/0
  1231 ;;		On exit  : B00/0
  1232 ;;		Unchanged: A00/0
  1233 ;; Data sizes:     COMMON   BANK0  BANK1h  BANK1l
  1234 ;;      Params:         0       0       0       0
  1235 ;;      Locals:         0       0       0       0
  1236 ;;      Temps:          0       0       0       0
  1237 ;;      Totals:         0       0       0       0
  1238 ;;Total ram usage:        0 bytes
  1239 ;; Hardware stack levels used:    1
  1240 ;; Hardware stack levels required when called:    6
  1241 ;; This function calls:
  1242 ;;		Nothing
  1243 ;; This function is called by:
  1244 ;;		_main
  1245 ;; This function uses a non-reentrant model
  1246 ;;
  1247                           ;psect for function _T0_sysinitial
  1248                           
  1249                           
  1250                           ;inital.c: 65: OPTION=0x07;
  1251                           ;incstack = 0
  1252                           ; Regs used in _T0_sysinitial: [wreg]
  1253  0335  3007               	movlw	7
  1254  0336  00C1               	movwf	65	;volatile
  1255                           
  1256                           ;inital.c: 66: T0=0xF0;
  1257  0337  30F0               	movlw	240
  1258  0338  0081               	movwf	1	;volatile
  1259                           
  1260                           ;inital.c: 67: T0IE=1;
  1261  0339  140E               	bsf	14,0	;volatile
  1262                           
  1263                           ;inital.c: 68: T0IF=0;
  1264  033A  118E               	bcf	14,3	;volatile
  1265                           
  1266                           ;inital.c: 69: GIE=1;
  1267  033B  178E               	bsf	14,7	;volatile
  1268  033C  0008               	return
  1269  033D                     __end_of_T0_sysinitial:	
  1270                           
  1271                           	psect	text4
  1272  026C                     __ptext4:	
  1273  026C                     _Motor_ToggleSpeed:	
  1274 ;; *************** function _Motor_ToggleSpeed *****************
  1275 ;; Defined at:
  1276 ;;		line 115 in file "motor1.c"
  1277 ;; Parameters:    Size  Location     Type
  1278 ;;		None
  1279 ;; Auto vars:     Size  Location     Type
  1280 ;;		None
  1281 ;; Return value:  Size  Location     Type
  1282 ;;                  1    wreg      void 
  1283 ;; Registers used:
  1284 ;;		wreg, fsr0l, fsr0h, status,2, status,0, pclath, cstack
  1285 ;; Tracked objects:
  1286 ;;		On entry : 100/0
  1287 ;;		On exit  : 100/0
  1288 ;;		Unchanged: 0/0
  1289 ;; Data sizes:     COMMON   BANK0  BANK1h  BANK1l
  1290 ;;      Params:         0       0       0       0
  1291 ;;      Locals:         0       0       0       0
  1292 ;;      Temps:          0       0       0       0
  1293 ;;      Totals:         0       0       0       0
  1294 ;;Total ram usage:        0 bytes
  1295 ;; Hardware stack levels used:    1
  1296 ;; Hardware stack levels required when called:    8
  1297 ;; This function calls:
  1298 ;;		___awmod
  1299 ;;		_hardware_set_motor
  1300 ;; This function is called by:
  1301 ;;		_main
  1302 ;; This function uses a non-reentrant model
  1303 ;;
  1304                           ;psect for function _Motor_ToggleSpeed
  1305                           
  1306                           
  1307                           ;motor1.c: 118: current_speed = (current_speed + 1) % SPEED_COUNT;
  1308                           ;incstack = 0
  1309 ;; hardware stack exceeded
  1310                           ; Regs used in _Motor_ToggleSpeed: [wreg-fsr0h+status,2+status,0+pclath+cstack]
  1311  026C  081E               	movf	_current_speed,w
  1312  026D  1683               	bsf	3,5	;RP0=1, select bank1
  1313  026E  00C2               	movwf	___awmod@dividend^(0+128)
  1314  026F  01C3               	clrf	(___awmod@dividend+1)^(0+128)
  1315  0270  0AC2               	incf	___awmod@dividend^(0+128),f
  1316  0271  1903               	btfsc	3,2
  1317  0272  0AC3               	incf	(___awmod@dividend+1)^(0+128),f
  1318  0273  3003               	movlw	3
  1319  0274  00C0               	movwf	___awmod@divisor^(0+128)
  1320  0275  01C1               	clrf	(___awmod@divisor+1)^(0+128)
  1321  0276  20D1               	fcall	___awmod
  1322  0277  0840               	movf	?___awmod^(0+128),w
  1323  0278  1283               	bcf	3,5	;RP0=0, select bank0
  1324  0279  009E               	movwf	_current_speed
  1325                           
  1326                           ;motor1.c: 121: hardware_set_motor(current_dir, current_speed);
  1327  027A  00B2               	movwf	hardware_set_motor@speed
  1328  027B  0820               	movf	_current_dir,w
  1329  027C  2A33               	ljmp	_hardware_set_motor
  1330  027D                     __end_of_Motor_ToggleSpeed:	
  1331                           
  1332                           	psect	text5
  1333  00D1                     __ptext5:	
  1334  00D1                     ___awmod:	
  1335 ;; *************** function ___awmod *****************
  1336 ;; Defined at:
  1337 ;;		line 6 in file "E:\HCIDE_V3.0.18.S_3TEST\picc_compiler\sources\common\awmod.c"
  1338 ;; Parameters:    Size  Location     Type
  1339 ;;  divisor         2    0[BANK1h] int 
  1340 ;;  dividend        2    2[BANK1h] int 
  1341 ;; Auto vars:     Size  Location     Type
  1342 ;;  sign            1    8[BANK0 ] unsigned char 
  1343 ;;  counter         1    7[BANK0 ] unsigned char 
  1344 ;; Return value:  Size  Location     Type
  1345 ;;                  2    0[BANK1h] int 
  1346 ;; Registers used:
  1347 ;;		wreg, status,2, status,0
  1348 ;; Tracked objects:
  1349 ;;		On entry : 100/100
  1350 ;;		On exit  : 100/100
  1351 ;;		Unchanged: 0/0
  1352 ;; Data sizes:     COMMON   BANK0  BANK1h  BANK1l
  1353 ;;      Params:         0       0       4       0
  1354 ;;      Locals:         0       2       0       0
  1355 ;;      Temps:          0       0       0       0
  1356 ;;      Totals:         0       2       4       0
  1357 ;;Total ram usage:        6 bytes
  1358 ;; Hardware stack levels used:    1
  1359 ;; Hardware stack levels required when called:    6
  1360 ;; This function calls:
  1361 ;;		Nothing
  1362 ;; This function is called by:
  1363 ;;		_Motor_ToggleSpeed
  1364 ;; This function uses a non-reentrant model
  1365 ;;
  1366                           ;psect for function ___awmod
  1367                           
  1368                           
  1369                           ;incstack = 0
  1370                           ; Regs used in ___awmod: [wreg+status,2+status,0]
  1371  00D1  1283               	bcf	3,5	;RP0=0, select bank0
  1372  00D2  01B2               	clrf	___awmod@sign
  1373  00D3  1683               	bsf	3,5	;RP0=1, select bank1
  1374  00D4  1FC3               	btfss	(___awmod@dividend+1)^(0+128),7
  1375  00D5  28DE               	goto	l4767
  1376  00D6  09C2               	comf	___awmod@dividend^(0+128),f
  1377  00D7  09C3               	comf	(___awmod@dividend+1)^(0+128),f
  1378  00D8  0AC2               	incf	___awmod@dividend^(0+128),f
  1379  00D9  1903               	btfsc	3,2
  1380  00DA  0AC3               	incf	(___awmod@dividend+1)^(0+128),f
  1381  00DB  1283               	bcf	3,5	;RP0=0, select bank0
  1382  00DC  01B2               	clrf	___awmod@sign
  1383  00DD  0AB2               	incf	___awmod@sign,f
  1384  00DE                     l4767:	
  1385  00DE  1683               	bsf	3,5	;RP0=1, select bank1
  1386  00DF  1FC1               	btfss	(___awmod@divisor+1)^(0+128),7
  1387  00E0  28E6               	goto	l4771
  1388  00E1  09C0               	comf	___awmod@divisor^(0+128),f
  1389  00E2  09C1               	comf	(___awmod@divisor+1)^(0+128),f
  1390  00E3  0AC0               	incf	___awmod@divisor^(0+128),f
  1391  00E4  1903               	btfsc	3,2
  1392  00E5  0AC1               	incf	(___awmod@divisor+1)^(0+128),f
  1393  00E6                     l4771:	
  1394  00E6  0840               	movf	___awmod@divisor^(0+128),w
  1395  00E7  0441               	iorwf	(___awmod@divisor+1)^(0+128),w
  1396  00E8  1283               	bcf	3,5	;RP0=0, select bank0
  1397  00E9  1903               	btfsc	3,2
  1398  00EA  290B               	goto	L3
  1399  00EB  01B1               	clrf	___awmod@counter
  1400  00EC                     L1:	
  1401  00EC  0AB1               	incf	___awmod@counter,f
  1402  00ED  1683               	bsf	3,5	;RP0=1, select bank1
  1403  00EE  1BC1               	btfsc	(___awmod@divisor+1)^(0+128),7
  1404  00EF  28F5               	goto	l4779
  1405  00F0  1003               	bcf	3,0
  1406  00F1  0DC0               	rlf	___awmod@divisor^(0+128),f
  1407  00F2  0DC1               	rlf	(___awmod@divisor+1)^(0+128),f
  1408  00F3  1283               	bcf	3,5	;RP0=0, select bank0
  1409  00F4  28EC               	goto	L1
  1410  00F5                     l4779:	
  1411  00F5  1683               	bsf	3,5	;RP0=1, select bank1
  1412  00F6  0841               	movf	(___awmod@divisor+1)^(0+128),w
  1413  00F7  0243               	subwf	(___awmod@dividend+1)^(0+128),w
  1414  00F8  1D03               	btfss	3,2
  1415  00F9  28FC               	goto	u1545
  1416  00FA  0840               	movf	___awmod@divisor^(0+128),w
  1417  00FB  0242               	subwf	___awmod@dividend^(0+128),w
  1418  00FC                     u1545:	
  1419  00FC  1C03               	btfss	3,0
  1420  00FD  2905               	goto	L2
  1421  00FE  0840               	movf	___awmod@divisor^(0+128),w
  1422  00FF  02C2               	subwf	___awmod@dividend^(0+128),f
  1423  0100  0841               	movf	(___awmod@divisor+1)^(0+128),w
  1424  0101  1C03               	btfss	3,0
  1425  0102  03C3               	decf	(___awmod@dividend+1)^(0+128),f
  1426  0103  02C3               	subwf	(___awmod@dividend+1)^(0+128),f
  1427  0104  1003               	bcf	3,0
  1428  0105                     L2:	
  1429  0105  0CC1               	rrf	(___awmod@divisor+1)^(0+128),f
  1430  0106  0CC0               	rrf	___awmod@divisor^(0+128),f
  1431  0107  1283               	bcf	3,5	;RP0=0, select bank0
  1432  0108  0BB1               	decfsz	___awmod@counter,f
  1433  0109  28F5               	goto	l4779
  1434  010A  1283               	bcf	3,5	;RP0=0, select bank0
  1435  010B                     L3:	
  1436  010B  0832               	movf	___awmod@sign,w
  1437  010C  1683               	bsf	3,5	;RP0=1, select bank1
  1438  010D  1903               	btfsc	3,2
  1439  010E  2915               	goto	L4
  1440  010F  09C2               	comf	___awmod@dividend^(0+128),f
  1441  0110  09C3               	comf	(___awmod@dividend+1)^(0+128),f
  1442  0111  0AC2               	incf	___awmod@dividend^(0+128),f
  1443  0112  1903               	btfsc	3,2
  1444  0113  0AC3               	incf	(___awmod@dividend+1)^(0+128),f
  1445  0114  1683               	bsf	3,5	;RP0=1, select bank1
  1446  0115                     L4:	
  1447  0115  0843               	movf	(___awmod@dividend+1)^(0+128),w
  1448  0116  00C1               	movwf	(?___awmod+1)^(0+128)
  1449  0117  0842               	movf	___awmod@dividend^(0+128),w
  1450  0118  00C0               	movwf	?___awmod^(0+128)
  1451  0119  0008               	return
  1452  011A                     __end_of___awmod:	
  1453                           
  1454                           	psect	text6
  1455  0323                     __ptext6:	
  1456  0323                     _Motor_ToggleDirection:	
  1457 ;; *************** function _Motor_ToggleDirection *****************
  1458 ;; Defined at:
  1459 ;;		line 102 in file "motor1.c"
  1460 ;; Parameters:    Size  Location     Type
  1461 ;;		None
  1462 ;; Auto vars:     Size  Location     Type
  1463 ;;		None
  1464 ;; Return value:  Size  Location     Type
  1465 ;;                  1    wreg      void 
  1466 ;; Registers used:
  1467 ;;		wreg, status,2, status,0, pclath, cstack
  1468 ;; Tracked objects:
  1469 ;;		On entry : 100/0
  1470 ;;		On exit  : 100/0
  1471 ;;		Unchanged: 0/0
  1472 ;; Data sizes:     COMMON   BANK0  BANK1h  BANK1l
  1473 ;;      Params:         0       0       0       0
  1474 ;;      Locals:         0       0       0       0
  1475 ;;      Temps:          0       0       0       0
  1476 ;;      Totals:         0       0       0       0
  1477 ;;Total ram usage:        0 bytes
  1478 ;; Hardware stack levels used:    1
  1479 ;; Hardware stack levels required when called:    9
  1480 ;; This function calls:
  1481 ;;		_Motor_Stop
  1482 ;; This function is called by:
  1483 ;;		_main
  1484 ;; This function uses a non-reentrant model
  1485 ;;
  1486                           ;psect for function _Motor_ToggleDirection
  1487                           
  1488                           
  1489                           ;motor1.c: 104: Motor_Stop();
  1490                           ;incstack = 0
  1491 ;; hardware stack exceeded
  1492                           ; Regs used in _Motor_ToggleDirection: [wreg+status,2+status,0+pclath+cstack]
  1493  0323  2399               	fcall	_Motor_Stop
  1494                           
  1495                           ;motor1.c: 107: current_dir = (current_dir == DIRECTION_FORWARD) ?
  1496                           ;motor1.c: 108: DIRECTION_REVERSE : DIRECTION_FORWARD;
  1497  0324  0820               	movf	_current_dir,w
  1498  0325  1D03               	btfss	3,2
  1499  0326  2B29               	goto	u1650
  1500  0327  3001               	movlw	1
  1501  0328  2B2A               	goto	u1660
  1502  0329                     u1650:	
  1503  0329  3000               	movlw	0
  1504  032A                     u1660:	
  1505  032A  00A0               	movwf	_current_dir
  1506  032B  0008               	return
  1507  032C                     __end_of_Motor_ToggleDirection:	
  1508                           
  1509                           	psect	text7
  1510  0399                     __ptext7:	
  1511  0399                     _Motor_Stop:	
  1512 ;; *************** function _Motor_Stop *****************
  1513 ;; Defined at:
  1514 ;;		line 93 in file "motor1.c"
  1515 ;; Parameters:    Size  Location     Type
  1516 ;;		None
  1517 ;; Auto vars:     Size  Location     Type
  1518 ;;		None
  1519 ;; Return value:  Size  Location     Type
  1520 ;;                  1    wreg      void 
  1521 ;; Registers used:
  1522 ;;		wreg, status,2, status,0, pclath, cstack
  1523 ;; Tracked objects:
  1524 ;;		On entry : 100/0
  1525 ;;		On exit  : 100/0
  1526 ;;		Unchanged: 0/0
  1527 ;; Data sizes:     COMMON   BANK0  BANK1h  BANK1l
  1528 ;;      Params:         0       0       0       0
  1529 ;;      Locals:         0       0       0       0
  1530 ;;      Temps:          0       0       0       0
  1531 ;;      Totals:         0       0       0       0
  1532 ;;Total ram usage:        0 bytes
  1533 ;; Hardware stack levels used:    1
  1534 ;; Hardware stack levels required when called:    8
  1535 ;; This function calls:
  1536 ;;		_hardware_stop_motor
  1537 ;; This function is called by:
  1538 ;;		_main
  1539 ;;		_Motor_ToggleDirection
  1540 ;; This function uses a non-reentrant model
  1541 ;;
  1542                           ;psect for function _Motor_Stop
  1543                           
  1544                           
  1545                           ;motor1.c: 95: hardware_stop_motor();
  1546                           ;incstack = 0
  1547 ;; hardware stack exceeded
  1548                           ; Regs used in _Motor_Stop: [wreg+status,2+status,0+pclath+cstack]
  1549  0399  2B76               	ljmp	l4701
  1550  039A                     __end_of_Motor_Stop:	
  1551                           
  1552                           	psect	text8
  1553  0372                     __ptext8:	
  1554  0372                     _Motor_Start:	
  1555 ;; *************** function _Motor_Start *****************
  1556 ;; Defined at:
  1557 ;;		line 84 in file "motor1.c"
  1558 ;; Parameters:    Size  Location     Type
  1559 ;;		None
  1560 ;; Auto vars:     Size  Location     Type
  1561 ;;		None
  1562 ;; Return value:  Size  Location     Type
  1563 ;;                  1    wreg      void 
  1564 ;; Registers used:
  1565 ;;		wreg, fsr0l, fsr0h, status,2, status,0, pclath, cstack
  1566 ;; Tracked objects:
  1567 ;;		On entry : 100/0
  1568 ;;		On exit  : 100/0
  1569 ;;		Unchanged: 0/0
  1570 ;; Data sizes:     COMMON   BANK0  BANK1h  BANK1l
  1571 ;;      Params:         0       0       0       0
  1572 ;;      Locals:         0       0       0       0
  1573 ;;      Temps:          0       0       0       0
  1574 ;;      Totals:         0       0       0       0
  1575 ;;Total ram usage:        0 bytes
  1576 ;; Hardware stack levels used:    1
  1577 ;; Hardware stack levels required when called:    8
  1578 ;; This function calls:
  1579 ;;		_hardware_set_motor
  1580 ;; This function is called by:
  1581 ;;		_main
  1582 ;; This function uses a non-reentrant model
  1583 ;;
  1584                           ;psect for function _Motor_Start
  1585                           
  1586                           
  1587                           ;motor1.c: 86: hardware_set_motor(current_dir, current_speed);
  1588                           ;incstack = 0
  1589 ;; hardware stack exceeded
  1590                           ; Regs used in _Motor_Start: [wreg-fsr0h+status,2+status,0+pclath+cstack]
  1591  0372  081E               	movf	_current_speed,w
  1592  0373  00B2               	movwf	hardware_set_motor@speed
  1593  0374  0820               	movf	_current_dir,w
  1594  0375  2A33               	ljmp	_hardware_set_motor
  1595  0376                     __end_of_Motor_Start:	
  1596                           
  1597                           	psect	text9
  1598  0233                     __ptext9:	
  1599  0233                     _hardware_set_motor:	
  1600 ;; *************** function _hardware_set_motor *****************
  1601 ;; Defined at:
  1602 ;;		line 41 in file "motor1.c"
  1603 ;; Parameters:    Size  Location     Type
  1604 ;;  dir             1    wreg     enum E491
  1605 ;;  speed           1    8[BANK0 ] enum E501
  1606 ;; Auto vars:     Size  Location     Type
  1607 ;;  dir             1    9[BANK0 ] enum E491
  1608 ;; Return value:  Size  Location     Type
  1609 ;;                  1    wreg      void 
  1610 ;; Registers used:
  1611 ;;		wreg, fsr0l, fsr0h, status,2, status,0, pclath, cstack
  1612 ;; Tracked objects:
  1613 ;;		On entry : 100/0
  1614 ;;		On exit  : 100/0
  1615 ;;		Unchanged: 0/0
  1616 ;; Data sizes:     COMMON   BANK0  BANK1h  BANK1l
  1617 ;;      Params:         0       1       0       0
  1618 ;;      Locals:         0       1       0       0
  1619 ;;      Temps:          0       0       0       0
  1620 ;;      Totals:         0       2       0       0
  1621 ;;Total ram usage:        2 bytes
  1622 ;; Hardware stack levels used:    1
  1623 ;; Hardware stack levels required when called:    7
  1624 ;; This function calls:
  1625 ;;		_nPWM1
  1626 ;;		_nPWM2
  1627 ;; This function is called by:
  1628 ;;		_Motor_Start
  1629 ;;		_Motor_ToggleSpeed
  1630 ;; This function uses a non-reentrant model
  1631 ;;
  1632                           ;psect for function _hardware_set_motor
  1633                           
  1634                           
  1635                           ;incstack = 0
  1636 ;; hardware stack exceeded
  1637                           ; Regs used in _hardware_set_motor: [wreg-fsr0h+status,2+status,0+pclath+cstack]
  1638                           ;hardware_set_motor@dir stored from wreg
  1639  0233  00B3               	movwf	hardware_set_motor@dir
  1640                           
  1641                           ;motor1.c: 43: if (dir == DIRECTION_FORWARD)
  1642  0234  0833               	movf	hardware_set_motor@dir,w
  1643  0235  1D03               	btfss	3,2
  1644  0236  2A3F               	goto	l4755
  1645                           
  1646                           ;motor1.c: 44: {
  1647                           ;motor1.c: 45: nPWM1(pwm_map[speed]);
  1648  0237  1003               	bcf	3,0
  1649  0238  0D32               	rlf	hardware_set_motor@speed,w
  1650  0239  3E01               	addlw	low ((_pwm_map-__stringbase)| (0+32768))
  1651  023A  0084               	movwf	4
  1652  023B  2300               	fcall	stringdir
  1653  023C  228E               	fcall	_nPWM1
  1654                           
  1655                           ;motor1.c: 46: nPWM2(0X00);
  1656  023D  3000               	movlw	0
  1657  023E  2A7D               	ljmp	_nPWM2
  1658  023F                     l4755:	
  1659                           
  1660                           ;motor1.c: 47: }
  1661                           ;motor1.c: 48: else
  1662                           ;motor1.c: 49: {
  1663                           ;motor1.c: 50: nPWM1(0X00);
  1664  023F  3000               	movlw	0
  1665  0240  228E               	fcall	_nPWM1
  1666                           
  1667                           ;motor1.c: 51: nPWM2(pwm_map[speed]);
  1668  0241  1003               	bcf	3,0
  1669  0242  0D32               	rlf	hardware_set_motor@speed,w
  1670  0243  3E01               	addlw	low ((_pwm_map-__stringbase)| (0+32768))
  1671  0244  0084               	movwf	4
  1672  0245  2300               	fcall	stringdir
  1673  0246  2A7D               	ljmp	_nPWM2
  1674  0247                     __end_of_hardware_set_motor:	
  1675                           
  1676                           	psect	text10
  1677  030C                     __ptext10:	
  1678  030C                     _Motor_Init:	
  1679 ;; *************** function _Motor_Init *****************
  1680 ;; Defined at:
  1681 ;;		line 62 in file "motor1.c"
  1682 ;; Parameters:    Size  Location     Type
  1683 ;;		None
  1684 ;; Auto vars:     Size  Location     Type
  1685 ;;		None
  1686 ;; Return value:  Size  Location     Type
  1687 ;;                  1    wreg      void 
  1688 ;; Registers used:
  1689 ;;		wreg, fsr0l, fsr0h, status,2, status,0, pclath, cstack
  1690 ;; Tracked objects:
  1691 ;;		On entry : 100/0
  1692 ;;		On exit  : 100/0
  1693 ;;		Unchanged: 0/0
  1694 ;; Data sizes:     COMMON   BANK0  BANK1h  BANK1l
  1695 ;;      Params:         0       0       0       0
  1696 ;;      Locals:         0       0       0       0
  1697 ;;      Temps:          0       0       0       0
  1698 ;;      Totals:         0       0       0       0
  1699 ;;Total ram usage:        0 bytes
  1700 ;; Hardware stack levels used:    1
  1701 ;; Hardware stack levels required when called:    8
  1702 ;; This function calls:
  1703 ;;		_Motor_SetMode
  1704 ;;		_hardware_stop_motor
  1705 ;; This function is called by:
  1706 ;;		_main
  1707 ;; This function uses a non-reentrant model
  1708 ;;
  1709                           ;psect for function _Motor_Init
  1710                           
  1711  030C  3000               	movlw	0
  1712                           
  1713                           ;motor1.c: 65: current_dir = DIRECTION_FORWARD;
  1714                           ;incstack = 0
  1715 ;; hardware stack exceeded
  1716                           ; Regs used in _Motor_Init: [wreg-fsr0h+status,2+status,0+pclath+cstack]
  1717  030D  01A0               	clrf	_current_dir
  1718                           
  1719                           ;motor1.c: 66: current_mode = MODE_INITIAL;
  1720  030E  019F               	clrf	_current_mode
  1721                           
  1722                           ;motor1.c: 67: current_speed = SPEED_85;
  1723  030F  019E               	clrf	_current_speed
  1724                           
  1725                           ;motor1.c: 70: mode_runtime.state = MODE_STATE_STOPPED;
  1726  0310  0197               	clrf	_mode_runtime
  1727  0311  0A97               	incf	_mode_runtime,f
  1728                           
  1729                           ;motor1.c: 71: mode_runtime.timer = 0;
  1730  0312  0198               	clrf	_mode_runtime+1
  1731  0313  0199               	clrf	_mode_runtime+2
  1732                           
  1733                           ;motor1.c: 72: mode_runtime.dir_switch_timer = 0;
  1734  0314  019A               	clrf	_mode_runtime+3
  1735  0315  019B               	clrf	_mode_runtime+4
  1736                           
  1737                           ;motor1.c: 75: Motor_SetMode(MODE_INITIAL);
  1738  0316  211A               	fcall	_Motor_SetMode
  1739                           
  1740                           ;motor1.c: 77: hardware_stop_motor();
  1741  0317  2B76               	ljmp	l4701
  1742  0318                     __end_of_Motor_Init:	
  1743                           
  1744                           	psect	text11
  1745  0376                     __ptext11:	
  1746  0376                     _hardware_stop_motor:	
  1747 ;; *************** function _hardware_stop_motor *****************
  1748 ;; Defined at:
  1749 ;;		line 29 in file "motor1.c"
  1750 ;; Parameters:    Size  Location     Type
  1751 ;;		None
  1752 ;; Auto vars:     Size  Location     Type
  1753 ;;		None
  1754 ;; Return value:  Size  Location     Type
  1755 ;;                  1    wreg      void 
  1756 ;; Registers used:
  1757 ;;		wreg, status,2, status,0, pclath, cstack
  1758 ;; Tracked objects:
  1759 ;;		On entry : 100/0
  1760 ;;		On exit  : 100/0
  1761 ;;		Unchanged: 0/0
  1762 ;; Data sizes:     COMMON   BANK0  BANK1h  BANK1l
  1763 ;;      Params:         0       0       0       0
  1764 ;;      Locals:         0       0       0       0
  1765 ;;      Temps:          0       0       0       0
  1766 ;;      Totals:         0       0       0       0
  1767 ;;Total ram usage:        0 bytes
  1768 ;; Hardware stack levels used:    1
  1769 ;; Hardware stack levels required when called:    7
  1770 ;; This function calls:
  1771 ;;		_nPWM1
  1772 ;;		_nPWM2
  1773 ;; This function is called by:
  1774 ;;		_Motor_Init
  1775 ;;		_Motor_Stop
  1776 ;; This function uses a non-reentrant model
  1777 ;;
  1778                           ;psect for function _hardware_stop_motor
  1779                           
  1780  0376                     l4701:	
  1781                           
  1782                           ;incstack = 0
  1783 ;; hardware stack exceeded
  1784                           ; Regs used in _hardware_stop_motor: [wreg+status,2+status,0+pclath+cstack]
  1785                           ;motor1.c: 31: nPWM1(0X00);
  1786  0376  3000               	movlw	0
  1787  0377  228E               	fcall	_nPWM1
  1788                           
  1789                           ;motor1.c: 32: nPWM2(0X00);
  1790  0378  3000               	movlw	0
  1791  0379  2A7D               	ljmp	_nPWM2
  1792  037A                     __end_of_hardware_stop_motor:	
  1793                           
  1794                           	psect	text12
  1795  027D                     __ptext12:	
  1796  027D                     _nPWM2:	
  1797 ;; *************** function _nPWM2 *****************
  1798 ;; Defined at:
  1799 ;;		line 38 in file "pwm.c"
  1800 ;; Parameters:    Size  Location     Type
  1801 ;;  m               1    wreg     unsigned char 
  1802 ;; Auto vars:     Size  Location     Type
  1803 ;;  m               1    7[BANK0 ] unsigned char 
  1804 ;; Return value:  Size  Location     Type
  1805 ;;                  1    wreg      void 
  1806 ;; Registers used:
  1807 ;;		wreg
  1808 ;; Tracked objects:
  1809 ;;		On entry : 100/0
  1810 ;;		On exit  : 100/0
  1811 ;;		Unchanged: 0/0
  1812 ;; Data sizes:     COMMON   BANK0  BANK1h  BANK1l
  1813 ;;      Params:         0       0       0       0
  1814 ;;      Locals:         0       1       0       0
  1815 ;;      Temps:          0       0       0       0
  1816 ;;      Totals:         0       1       0       0
  1817 ;;Total ram usage:        1 bytes
  1818 ;; Hardware stack levels used:    1
  1819 ;; Hardware stack levels required when called:    6
  1820 ;; This function calls:
  1821 ;;		Nothing
  1822 ;; This function is called by:
  1823 ;;		_hardware_stop_motor
  1824 ;;		_hardware_set_motor
  1825 ;; This function uses a non-reentrant model
  1826 ;;
  1827                           ;psect for function _nPWM2
  1828                           
  1829                           
  1830                           ;incstack = 0
  1831 ;; hardware stack exceeded
  1832                           ; Regs used in _nPWM2: [wreg]
  1833                           ;nPWM2@m stored from wreg
  1834  027D  00B1               	movwf	nPWM2@m
  1835                           
  1836                           ;pwm.c: 40: WDTEN = 0;
  1837  027E  13C1               	bcf	65,7	;volatile
  1838                           
  1839                           ;pwm.c: 42: TMR2H = 0x40;
  1840  027F  3040               	movlw	64
  1841  0280  00D1               	movwf	81	;volatile
  1842                           
  1843                           ;pwm.c: 43: PWM1E = 1;
  1844  0281  1750               	bsf	80,6	;volatile
  1845                           
  1846                           ;pwm.c: 44: T2 = 0x34;
  1847  0282  3034               	movlw	52
  1848  0283  00D2               	movwf	82	;volatile
  1849                           
  1850                           ;pwm.c: 45: T2LOAD = 0xF5;
  1851  0284  30F5               	movlw	245
  1852  0285  00D3               	movwf	83	;volatile
  1853                           
  1854                           ;pwm.c: 46: PWM1P = m;
  1855  0286  0831               	movf	nPWM2@m,w
  1856  0287  00D4               	movwf	84	;volatile
  1857                           
  1858                           ;pwm.c: 47: T2CON = 0x40;
  1859  0288  3040               	movlw	64
  1860  0289  00D0               	movwf	80	;volatile
  1861                           
  1862                           ;pwm.c: 48: T2IF = 0;
  1863  028A  12CB               	bcf	75,5	;volatile
  1864                           
  1865                           ;pwm.c: 50: T2EN = 1;
  1866  028B  17D0               	bsf	80,7	;volatile
  1867                           
  1868                           ;pwm.c: 51: T2IE = 1;
  1869  028C  174B               	bsf	75,6	;volatile
  1870  028D  0008               	return
  1871  028E                     __end_of_nPWM2:	
  1872                           
  1873                           	psect	text13
  1874  028E                     __ptext13:	
  1875  028E                     _nPWM1:	
  1876 ;; *************** function _nPWM1 *****************
  1877 ;; Defined at:
  1878 ;;		line 15 in file "pwm.c"
  1879 ;; Parameters:    Size  Location     Type
  1880 ;;  n               1    wreg     unsigned char 
  1881 ;; Auto vars:     Size  Location     Type
  1882 ;;  n               1    7[BANK0 ] unsigned char 
  1883 ;; Return value:  Size  Location     Type
  1884 ;;                  1    wreg      void 
  1885 ;; Registers used:
  1886 ;;		wreg
  1887 ;; Tracked objects:
  1888 ;;		On entry : 100/0
  1889 ;;		On exit  : 100/0
  1890 ;;		Unchanged: 0/0
  1891 ;; Data sizes:     COMMON   BANK0  BANK1h  BANK1l
  1892 ;;      Params:         0       0       0       0
  1893 ;;      Locals:         0       1       0       0
  1894 ;;      Temps:          0       0       0       0
  1895 ;;      Totals:         0       1       0       0
  1896 ;;Total ram usage:        1 bytes
  1897 ;; Hardware stack levels used:    1
  1898 ;; Hardware stack levels required when called:    6
  1899 ;; This function calls:
  1900 ;;		Nothing
  1901 ;; This function is called by:
  1902 ;;		_hardware_stop_motor
  1903 ;;		_hardware_set_motor
  1904 ;; This function uses a non-reentrant model
  1905 ;;
  1906                           ;psect for function _nPWM1
  1907                           
  1908                           
  1909                           ;incstack = 0
  1910 ;; hardware stack exceeded
  1911                           ; Regs used in _nPWM1: [wreg]
  1912                           ;nPWM1@n stored from wreg
  1913  028E  00B1               	movwf	nPWM1@n
  1914                           
  1915                           ;pwm.c: 17: WDTEN = 0;
  1916  028F  13C1               	bcf	65,7	;volatile
  1917                           
  1918                           ;pwm.c: 19: TMR2H = 0x40;
  1919  0290  3040               	movlw	64
  1920  0291  00D1               	movwf	81	;volatile
  1921                           
  1922                           ;pwm.c: 20: PWM0E = 1;
  1923  0292  174C               	bsf	76,6	;volatile
  1924                           
  1925                           ;pwm.c: 21: T1 = 0x34;
  1926  0293  3034               	movlw	52
  1927  0294  00CD               	movwf	77	;volatile
  1928                           
  1929                           ;pwm.c: 22: T1LOAD = 0xF5;
  1930  0295  30F5               	movlw	245
  1931  0296  00CE               	movwf	78	;volatile
  1932                           
  1933                           ;pwm.c: 23: PWM0P = n;
  1934  0297  0831               	movf	nPWM1@n,w
  1935  0298  00CF               	movwf	79	;volatile
  1936                           
  1937                           ;pwm.c: 24: T1CON = 0x40;
  1938  0299  3040               	movlw	64
  1939  029A  00CC               	movwf	76	;volatile
  1940                           
  1941                           ;pwm.c: 25: T1IF = 0;
  1942  029B  104B               	bcf	75,0	;volatile
  1943                           
  1944                           ;pwm.c: 27: T1EN = 1;
  1945  029C  17CC               	bsf	76,7	;volatile
  1946                           
  1947                           ;pwm.c: 28: T1IE = 1;
  1948  029D  14CB               	bsf	75,1	;volatile
  1949  029E  0008               	return
  1950  029F                     __end_of_nPWM1:	
  1951                           
  1952                           	psect	text14
  1953  011A                     __ptext14:	
  1954  011A                     _Motor_SetMode:	
  1955 ;; *************** function _Motor_SetMode *****************
  1956 ;; Defined at:
  1957 ;;		line 154 in file "motor1.c"
  1958 ;; Parameters:    Size  Location     Type
  1959 ;;  new_mode        1    wreg     enum E495
  1960 ;; Auto vars:     Size  Location     Type
  1961 ;;  new_mode        1    7[BANK0 ] enum E495
  1962 ;; Return value:  Size  Location     Type
  1963 ;;                  1    wreg      void 
  1964 ;; Registers used:
  1965 ;;		wreg, fsr0l, fsr0h, status,2, status,0
  1966 ;; Tracked objects:
  1967 ;;		On entry : 0/0
  1968 ;;		On exit  : 100/0
  1969 ;;		Unchanged: 0/0
  1970 ;; Data sizes:     COMMON   BANK0  BANK1h  BANK1l
  1971 ;;      Params:         0       0       0       0
  1972 ;;      Locals:         0       1       0       0
  1973 ;;      Temps:          0       0       0       0
  1974 ;;      Totals:         0       1       0       0
  1975 ;;Total ram usage:        1 bytes
  1976 ;; Hardware stack levels used:    1
  1977 ;; Hardware stack levels required when called:    6
  1978 ;; This function calls:
  1979 ;;		Nothing
  1980 ;; This function is called by:
  1981 ;;		_main
  1982 ;;		_Motor_Init
  1983 ;; This function uses a non-reentrant model
  1984 ;;
  1985                           ;psect for function _Motor_SetMode
  1986                           
  1987                           
  1988                           ;incstack = 0
  1989                           ; Regs used in _Motor_SetMode: [wreg-fsr0h+status,2+status,0]
  1990                           ;Motor_SetMode@new_mode stored from wreg
  1991  011A  1283               	bcf	3,5	;RP0=0, select bank0
  1992  011B  00B1               	movwf	Motor_SetMode@new_mode
  1993                           
  1994                           ;motor1.c: 157: current_mode = new_mode;
  1995  011C  009F               	movwf	_current_mode
  1996                           
  1997                           ;motor1.c: 160: mode_runtime.timer = 0;
  1998  011D  0198               	clrf	_mode_runtime+1
  1999  011E  0199               	clrf	_mode_runtime+2
  2000                           
  2001                           ;motor1.c: 161: mode_runtime.dir_switch_timer = 0;
  2002  011F  019A               	clrf	_mode_runtime+3
  2003  0120  019B               	clrf	_mode_runtime+4
  2004                           
  2005                           ;motor1.c: 164: switch (new_mode)
  2006  0121  2946               	goto	l4743
  2007  0122                     l2513:	
  2008                           
  2009                           ;motor1.c: 165: {
  2010                           ;motor1.c: 166: case MODE_INITIAL:
  2011                           ;motor1.c: 168: mode_params.work_duration = 60000;
  2012  0122  3060               	movlw	96
  2013  0123  0090               	movwf	_mode_params
  2014  0124  30EA               	movlw	234
  2015  0125  0091               	movwf	_mode_params+1
  2016                           
  2017                           ;motor1.c: 169: mode_params.stop_duration = 1000;
  2018  0126  30E8               	movlw	232
  2019  0127  0092               	movwf	_mode_params+2
  2020  0128  3003               	movlw	3
  2021  0129  2931               	goto	L5
  2022  012A                     l2515:	
  2023                           
  2024                           ;motor1.c: 174: case MODE_A:
  2025                           ;motor1.c: 172: break;
  2026                           ;motor1.c: 171: mode_params.dir_switch_interval = 60000;
  2027                           ;motor1.c: 170: mode_params.auto_dir_switch = 1;
  2028                           ;motor1.c: 176: mode_params.work_duration = 1500;
  2029  012A  30DC               	movlw	220
  2030  012B  0090               	movwf	_mode_params
  2031  012C  3005               	movlw	5
  2032  012D  0091               	movwf	_mode_params+1
  2033                           
  2034                           ;motor1.c: 177: mode_params.stop_duration = 500;
  2035  012E  30F4               	movlw	244
  2036  012F  0092               	movwf	_mode_params+2
  2037  0130  3001               	movlw	1
  2038  0131                     L5:	
  2039  0131  0093               	movwf	_mode_params+3
  2040  0132  3060               	movlw	96
  2041                           
  2042                           ;motor1.c: 178: mode_params.auto_dir_switch = 1;
  2043  0133  0194               	clrf	_mode_params+4
  2044  0134  0A94               	incf	_mode_params+4,f
  2045                           
  2046                           ;motor1.c: 179: mode_params.dir_switch_interval = 60000;
  2047  0135  0095               	movwf	_mode_params+5
  2048  0136  30EA               	movlw	234
  2049  0137  0096               	movwf	_mode_params+6
  2050                           
  2051                           ;motor1.c: 180: break;
  2052  0138  2951               	goto	l2514
  2053  0139                     l2516:	
  2054                           
  2055                           ;motor1.c: 182: case MODE_B:
  2056                           ;motor1.c: 184: mode_params.work_duration = 2000;
  2057  0139  30D0               	movlw	208
  2058  013A  0090               	movwf	_mode_params
  2059  013B  3007               	movlw	7
  2060                           
  2061                           ;motor1.c: 185: mode_params.stop_duration = 500;
  2062                           ;motor1.c: 186: mode_params.auto_dir_switch = 1;
  2063  013C  2154               	fcall	PL2	;call to abstracted procedure
  2064  013D  0A94               	incf	_mode_params+4,f
  2065  013E  2943               	goto	L6
  2066  013F                     l2517:	
  2067                           
  2068                           ;motor1.c: 190: case MODE_C:
  2069                           ;motor1.c: 188: break;
  2070                           ;motor1.c: 187: mode_params.dir_switch_interval = 0;
  2071                           ;motor1.c: 192: mode_params.work_duration = 1000;
  2072  013F  30E8               	movlw	232
  2073  0140  0090               	movwf	_mode_params
  2074  0141  3003               	movlw	3
  2075                           
  2076                           ;motor1.c: 193: mode_params.stop_duration = 500;
  2077                           ;motor1.c: 194: mode_params.auto_dir_switch = 0;
  2078  0142  2154               	fcall	PL2	;call to abstracted procedure
  2079  0143                     L6:	
  2080                           
  2081                           ;motor1.c: 195: mode_params.dir_switch_interval = 0;
  2082  0143  0195               	clrf	_mode_params+5
  2083  0144  0196               	clrf	_mode_params+6
  2084                           
  2085                           ;motor1.c: 196: break;
  2086  0145  2951               	goto	l2514
  2087  0146                     l4743:	
  2088  0146  0831               	movf	Motor_SetMode@new_mode,w
  2089                           
  2090                           ; Switch size 1, requested type "space"
  2091                           ; Number of cases is 4, Range of values is 0 to 3
  2092                           ; switch strategies available:
  2093                           ; Name         Instructions Cycles
  2094                           ; direct_byte           10     6 (fixed)
  2095                           ; simple_byte           13     7 (average)
  2096                           ; jumptable            260     6 (fixed)
  2097                           ;	Chosen strategy is direct_byte
  2098  0147  0084               	movwf	4
  2099  0148  3004               	movlw	4
  2100  0149  0204               	subwf	4,w
  2101  014A  1803               	btfsc	3,0
  2102  014B  2951               	goto	l2514
  2103  014C  3002               	movlw	high S5009
  2104  014D  008A               	movwf	10
  2105  014E  30FC               	movlw	low S5009
  2106  014F  0704               	addwf	4,w
  2107  0150  0082               	movwf	2
  2108  0151                     l2514:	
  2109                           
  2110                           ;motor1.c: 200: mode_runtime.state = MODE_STATE_STOPPED;
  2111  0151  0197               	clrf	_mode_runtime
  2112  0152  0A97               	incf	_mode_runtime,f
  2113  0153  0008               	return
  2114  0154                     __end_of_Motor_SetMode:	
  2115  0154                     PL2:	
  2116  0154  0091               	movwf	_mode_params+1
  2117  0155  30F4               	movlw	244
  2118  0156  0092               	movwf	_mode_params+2
  2119  0157  3001               	movlw	1
  2120  0158  0093               	movwf	_mode_params+3
  2121  0159  0194               	clrf	_mode_params+4
  2122  015A  0008               	return
  2123  015B                     __end_ofPL2:	
  2124                           
  2125                           	psect	swtext1
  2126  02FC                     __pswtext1:	
  2127  02FC                     S5009:	
  2128  02FC  2922               	ljmp	l2513
  2129  02FD  292A               	ljmp	l2515
  2130  02FE  2939               	ljmp	l2516
  2131  02FF  293F               	ljmp	l2517
  2132                           
  2133                           	psect	text15
  2134  0391                     __ptext15:	
  2135  0391                     _Motor_GetMode:	
  2136 ;; *************** function _Motor_GetMode *****************
  2137 ;; Defined at:
  2138 ;;		line 144 in file "motor1.c"
  2139 ;; Parameters:    Size  Location     Type
  2140 ;;		None
  2141 ;; Auto vars:     Size  Location     Type
  2142 ;;		None
  2143 ;; Return value:  Size  Location     Type
  2144 ;;                  1    wreg      enum E467
  2145 ;; Registers used:
  2146 ;;		wreg
  2147 ;; Tracked objects:
  2148 ;;		On entry : 100/0
  2149 ;;		On exit  : 100/0
  2150 ;;		Unchanged: 0/0
  2151 ;; Data sizes:     COMMON   BANK0  BANK1h  BANK1l
  2152 ;;      Params:         0       0       0       0
  2153 ;;      Locals:         0       0       0       0
  2154 ;;      Temps:          0       0       0       0
  2155 ;;      Totals:         0       0       0       0
  2156 ;;Total ram usage:        0 bytes
  2157 ;; Hardware stack levels used:    1
  2158 ;; Hardware stack levels required when called:    6
  2159 ;; This function calls:
  2160 ;;		Nothing
  2161 ;; This function is called by:
  2162 ;;		_main
  2163 ;; This function uses a non-reentrant model
  2164 ;;
  2165                           ;psect for function _Motor_GetMode
  2166                           
  2167                           
  2168                           ;motor1.c: 146: return current_mode;
  2169                           ;incstack = 0
  2170                           ; Regs used in _Motor_GetMode: [wreg]
  2171  0391  081F               	movf	_current_mode,w
  2172  0392  0008               	return
  2173  0393                     __end_of_Motor_GetMode:	
  2174                           
  2175                           	psect	text16
  2176  0247                     __ptext16:	
  2177  0247                     _Heat_Toggle:	
  2178 ;; *************** function _Heat_Toggle *****************
  2179 ;; Defined at:
  2180 ;;		line 122 in file "heat.c"
  2181 ;; Parameters:    Size  Location     Type
  2182 ;;		None
  2183 ;; Auto vars:     Size  Location     Type
  2184 ;;		None
  2185 ;; Return value:  Size  Location     Type
  2186 ;;                  1    wreg      void 
  2187 ;; Registers used:
  2188 ;;		wreg, fsr0l, fsr0h, status,2, status,0, pclath, cstack
  2189 ;; Tracked objects:
  2190 ;;		On entry : 100/0
  2191 ;;		On exit  : 100/0
  2192 ;;		Unchanged: 0/0
  2193 ;; Data sizes:     COMMON   BANK0  BANK1h  BANK1l
  2194 ;;      Params:         0       0       0       0
  2195 ;;      Locals:         0       0       0       0
  2196 ;;      Temps:          0       0       0       0
  2197 ;;      Totals:         0       0       0       0
  2198 ;;Total ram usage:        0 bytes
  2199 ;; Hardware stack levels used:    1
  2200 ;; Hardware stack levels required when called:    8
  2201 ;; This function calls:
  2202 ;;		_Heat_SetMode
  2203 ;;		_hardware_set_heat
  2204 ;; This function is called by:
  2205 ;;		_main
  2206 ;; This function uses a non-reentrant model
  2207 ;;
  2208                           ;psect for function _Heat_Toggle
  2209                           
  2210                           
  2211                           ;heat.c: 125: if (current_heat_mode == HEAT_MODE_OFF)
  2212                           ;incstack = 0
  2213 ;; hardware stack exceeded
  2214                           ; Regs used in _Heat_Toggle: [wreg-fsr0h+status,2+status,0+pclath+cstack]
  2215  0247  0828               	movf	_current_heat_mode,w
  2216                           
  2217                           ;heat.c: 126: {
  2218                           ;heat.c: 127: Heat_SetMode(HEAT_MODE_ON);
  2219  0248  3002               	movlw	2
  2220  0249  1D03               	btfss	3,2
  2221  024A  2A4E               	goto	L7
  2222  024B  238B               	fcall	_Heat_SetMode
  2223                           
  2224                           ;heat.c: 128: hardware_set_heat(current_heat_mode);
  2225  024C  0828               	movf	_current_heat_mode,w
  2226  024D  2A1E               	ljmp	_hardware_set_heat
  2227  024E                     L7:	
  2228                           
  2229                           ;heat.c: 130: else if (current_heat_mode == HEAT_MODE_ON)
  2230                           ;heat.c: 129: }
  2231  024E  0628               	xorwf	_current_heat_mode,w
  2232  024F  1D03               	btfss	3,2
  2233  0250  2A55               	goto	l4819
  2234                           
  2235                           ;heat.c: 131: {
  2236                           ;heat.c: 132: Heat_SetMode(HEAT_MODE_OFF);
  2237  0251  3000               	movlw	0
  2238  0252  238B               	fcall	_Heat_SetMode
  2239                           
  2240                           ;heat.c: 133: hardware_set_heat(current_heat_mode);
  2241  0253  0828               	movf	_current_heat_mode,w
  2242  0254  2A1E               	ljmp	_hardware_set_heat
  2243  0255                     l4819:	
  2244                           
  2245                           ;heat.c: 134: }
  2246                           ;heat.c: 135: else if (current_heat_mode == HEAT_MODE_HALF)
  2247  0255  0B28               	decfsz	_current_heat_mode,w
  2248  0256  0008               	return
  2249                           
  2250                           ;heat.c: 136: {
  2251                           ;heat.c: 137: Heat_SetMode(HEAT_MODE_OFF);
  2252  0257  3000               	movlw	0
  2253  0258  238B               	fcall	_Heat_SetMode
  2254                           
  2255                           ;heat.c: 138: hardware_set_heat(current_heat_mode);
  2256  0259  0828               	movf	_current_heat_mode,w
  2257  025A  2A1E               	ljmp	_hardware_set_heat
  2258  025B                     __end_of_Heat_Toggle:	
  2259                           
  2260                           	psect	text17
  2261  035E                     __ptext17:	
  2262  035E                     _Heat_Stop:	
  2263 ;; *************** function _Heat_Stop *****************
  2264 ;; Defined at:
  2265 ;;		line 102 in file "heat.c"
  2266 ;; Parameters:    Size  Location     Type
  2267 ;;		None
  2268 ;; Auto vars:     Size  Location     Type
  2269 ;;		None
  2270 ;; Return value:  Size  Location     Type
  2271 ;;                  1    wreg      void 
  2272 ;; Registers used:
  2273 ;;		wreg, status,2, status,0, pclath, cstack
  2274 ;; Tracked objects:
  2275 ;;		On entry : 100/0
  2276 ;;		On exit  : 100/0
  2277 ;;		Unchanged: 0/0
  2278 ;; Data sizes:     COMMON   BANK0  BANK1h  BANK1l
  2279 ;;      Params:         0       0       0       0
  2280 ;;      Locals:         0       0       0       0
  2281 ;;      Temps:          0       0       0       0
  2282 ;;      Totals:         0       0       0       0
  2283 ;;Total ram usage:        0 bytes
  2284 ;; Hardware stack levels used:    1
  2285 ;; Hardware stack levels required when called:    7
  2286 ;; This function calls:
  2287 ;;		_hardware_pwm_control
  2288 ;;		_hardware_stop_heat
  2289 ;; This function is called by:
  2290 ;;		_main
  2291 ;; This function uses a non-reentrant model
  2292 ;;
  2293                           ;psect for function _Heat_Stop
  2294                           
  2295                           
  2296                           ;heat.c: 104: hardware_stop_heat();
  2297                           ;incstack = 0
  2298                           ; Regs used in _Heat_Stop: [wreg+status,2+status,0+pclath+cstack]
  2299  035E  2388               	fcall	_hardware_stop_heat
  2300                           
  2301                           ;heat.c: 105: hardware_pwm_control(0);
  2302  035F  3000               	movlw	0
  2303  0360  2352               	fcall	_hardware_pwm_control
  2304                           
  2305                           ;heat.c: 106: current_heat_mode = HEAT_MODE_OFF;
  2306  0361  01A8               	clrf	_current_heat_mode
  2307  0362  0008               	return
  2308  0363                     __end_of_Heat_Stop:	
  2309                           
  2310                           	psect	text18
  2311  0393                     __ptext18:	
  2312  0393                     _Heat_Start:	
  2313 ;; *************** function _Heat_Start *****************
  2314 ;; Defined at:
  2315 ;;		line 94 in file "heat.c"
  2316 ;; Parameters:    Size  Location     Type
  2317 ;;		None
  2318 ;; Auto vars:     Size  Location     Type
  2319 ;;		None
  2320 ;; Return value:  Size  Location     Type
  2321 ;;                  1    wreg      void 
  2322 ;; Registers used:
  2323 ;;		wreg, fsr0l, fsr0h, status,2, status,0, pclath, cstack
  2324 ;; Tracked objects:
  2325 ;;		On entry : 100/0
  2326 ;;		On exit  : 100/0
  2327 ;;		Unchanged: 0/0
  2328 ;; Data sizes:     COMMON   BANK0  BANK1h  BANK1l
  2329 ;;      Params:         0       0       0       0
  2330 ;;      Locals:         0       0       0       0
  2331 ;;      Temps:          0       0       0       0
  2332 ;;      Totals:         0       0       0       0
  2333 ;;Total ram usage:        0 bytes
  2334 ;; Hardware stack levels used:    1
  2335 ;; Hardware stack levels required when called:    8
  2336 ;; This function calls:
  2337 ;;		_hardware_set_heat
  2338 ;; This function is called by:
  2339 ;;		_main
  2340 ;; This function uses a non-reentrant model
  2341 ;;
  2342                           ;psect for function _Heat_Start
  2343                           
  2344                           
  2345                           ;heat.c: 96: hardware_set_heat(current_heat_mode);
  2346                           ;incstack = 0
  2347 ;; hardware stack exceeded
  2348                           ; Regs used in _Heat_Start: [wreg-fsr0h+status,2+status,0+pclath+cstack]
  2349  0393  0828               	movf	_current_heat_mode,w
  2350  0394  2A1E               	ljmp	_hardware_set_heat
  2351  0395                     __end_of_Heat_Start:	
  2352                           
  2353                           	psect	text19
  2354  0385                     __ptext19:	
  2355  0385                     _Heat_Init:	
  2356 ;; *************** function _Heat_Init *****************
  2357 ;; Defined at:
  2358 ;;		line 82 in file "heat.c"
  2359 ;; Parameters:    Size  Location     Type
  2360 ;;		None
  2361 ;; Auto vars:     Size  Location     Type
  2362 ;;		None
  2363 ;; Return value:  Size  Location     Type
  2364 ;;                  1    wreg      void 
  2365 ;; Registers used:
  2366 ;;		status,2
  2367 ;; Tracked objects:
  2368 ;;		On entry : 100/0
  2369 ;;		On exit  : 100/0
  2370 ;;		Unchanged: 0/0
  2371 ;; Data sizes:     COMMON   BANK0  BANK1h  BANK1l
  2372 ;;      Params:         0       0       0       0
  2373 ;;      Locals:         0       0       0       0
  2374 ;;      Temps:          0       0       0       0
  2375 ;;      Totals:         0       0       0       0
  2376 ;;Total ram usage:        0 bytes
  2377 ;; Hardware stack levels used:    1
  2378 ;; Hardware stack levels required when called:    6
  2379 ;; This function calls:
  2380 ;;		Nothing
  2381 ;; This function is called by:
  2382 ;;		_main
  2383 ;; This function uses a non-reentrant model
  2384 ;;
  2385                           ;psect for function _Heat_Init
  2386                           
  2387                           
  2388                           ;heat.c: 85: current_heat_mode = HEAT_MODE_OFF;
  2389                           ;incstack = 0
  2390                           ; Regs used in _Heat_Init: [status,2]
  2391  0385  01A8               	clrf	_current_heat_mode
  2392                           
  2393                           ;heat.c: 88: PORTB0 = 0;
  2394  0386  1006               	bcf	6,0	;volatile
  2395  0387  0008               	return
  2396  0388                     __end_of_Heat_Init:	
  2397                           
  2398                           	psect	text20
  2399  02E1                     __ptext20:	
  2400  02E1                     _HEAT_EnergySave:	
  2401 ;; *************** function _HEAT_EnergySave *****************
  2402 ;; Defined at:
  2403 ;;		line 145 in file "heat.c"
  2404 ;; Parameters:    Size  Location     Type
  2405 ;;		None
  2406 ;; Auto vars:     Size  Location     Type
  2407 ;;		None
  2408 ;; Return value:  Size  Location     Type
  2409 ;;                  1    wreg      void 
  2410 ;; Registers used:
  2411 ;;		wreg, fsr0l, fsr0h, status,2, status,0, pclath, cstack
  2412 ;; Tracked objects:
  2413 ;;		On entry : 100/0
  2414 ;;		On exit  : 100/0
  2415 ;;		Unchanged: 0/0
  2416 ;; Data sizes:     COMMON   BANK0  BANK1h  BANK1l
  2417 ;;      Params:         0       0       0       0
  2418 ;;      Locals:         0       0       0       0
  2419 ;;      Temps:          0       0       0       0
  2420 ;;      Totals:         0       0       0       0
  2421 ;;Total ram usage:        0 bytes
  2422 ;; Hardware stack levels used:    1
  2423 ;; Hardware stack levels required when called:    8
  2424 ;; This function calls:
  2425 ;;		_Heat_SetMode
  2426 ;;		_hardware_set_heat
  2427 ;; This function is called by:
  2428 ;;		_main
  2429 ;; This function uses a non-reentrant model
  2430 ;;
  2431                           ;psect for function _HEAT_EnergySave
  2432                           
  2433                           
  2434                           ;heat.c: 148: if (current_heat_mode == HEAT_MODE_ON)
  2435                           ;incstack = 0
  2436 ;; hardware stack exceeded
  2437                           ; Regs used in _HEAT_EnergySave: [wreg-fsr0h+status,2+status,0+pclath+cstack]
  2438  02E1  3002               	movlw	2
  2439  02E2  0628               	xorwf	_current_heat_mode,w
  2440  02E3  1D03               	btfss	3,2
  2441  02E4  2AE9               	goto	l4831
  2442                           
  2443                           ;heat.c: 149: {
  2444                           ;heat.c: 150: Heat_SetMode(HEAT_MODE_HALF);
  2445  02E5  3001               	movlw	1
  2446  02E6  238B               	fcall	_Heat_SetMode
  2447                           
  2448                           ;heat.c: 151: hardware_set_heat(current_heat_mode);
  2449  02E7  0828               	movf	_current_heat_mode,w
  2450  02E8  2A1E               	ljmp	_hardware_set_heat
  2451  02E9                     l4831:	
  2452                           
  2453                           ;heat.c: 152: }
  2454                           ;heat.c: 153: else if (current_heat_mode == HEAT_MODE_HALF)
  2455  02E9  0B28               	decfsz	_current_heat_mode,w
  2456  02EA  0008               	return
  2457                           
  2458                           ;heat.c: 154: {
  2459                           ;heat.c: 155: Heat_SetMode(HEAT_MODE_ON);
  2460  02EB  3002               	movlw	2
  2461  02EC  238B               	fcall	_Heat_SetMode
  2462                           
  2463                           ;heat.c: 156: hardware_set_heat(current_heat_mode);
  2464  02ED  0828               	movf	_current_heat_mode,w
  2465  02EE  2A1E               	ljmp	_hardware_set_heat
  2466  02EF                     __end_of_HEAT_EnergySave:	
  2467                           
  2468                           	psect	text21
  2469  021E                     __ptext21:	
  2470  021E                     _hardware_set_heat:	
  2471 ;; *************** function _hardware_set_heat *****************
  2472 ;; Defined at:
  2473 ;;		line 12 in file "heat.c"
  2474 ;; Parameters:    Size  Location     Type
  2475 ;;  current_heat    1    wreg     enum E518
  2476 ;; Auto vars:     Size  Location     Type
  2477 ;;  current_heat    1    8[BANK0 ] enum E518
  2478 ;; Return value:  Size  Location     Type
  2479 ;;                  1    wreg      void 
  2480 ;; Registers used:
  2481 ;;		wreg, fsr0l, fsr0h, status,2, status,0, pclath, cstack
  2482 ;; Tracked objects:
  2483 ;;		On entry : 100/0
  2484 ;;		On exit  : 100/0
  2485 ;;		Unchanged: 0/0
  2486 ;; Data sizes:     COMMON   BANK0  BANK1h  BANK1l
  2487 ;;      Params:         0       0       0       0
  2488 ;;      Locals:         0       1       0       0
  2489 ;;      Temps:          0       0       0       0
  2490 ;;      Totals:         0       1       0       0
  2491 ;;Total ram usage:        1 bytes
  2492 ;; Hardware stack levels used:    1
  2493 ;; Hardware stack levels required when called:    7
  2494 ;; This function calls:
  2495 ;;		_hardware_pwm_control
  2496 ;;		_hardware_stop_heat
  2497 ;; This function is called by:
  2498 ;;		_Heat_Start
  2499 ;;		_Heat_Toggle
  2500 ;;		_HEAT_EnergySave
  2501 ;; This function uses a non-reentrant model
  2502 ;;
  2503                           ;psect for function _hardware_set_heat
  2504                           
  2505                           
  2506                           ;incstack = 0
  2507 ;; hardware stack exceeded
  2508                           ; Regs used in _hardware_set_heat: [wreg-fsr0h+status,2+status,0+pclath+cstack]
  2509                           ;hardware_set_heat@current_heat_mode stored from wreg
  2510  021E  00B2               	movwf	hardware_set_heat@current_heat_mode
  2511                           
  2512                           ; Switch size 1, requested type "space"
  2513                           ; Number of cases is 3, Range of values is 0 to 2
  2514                           ; switch strategies available:
  2515                           ; Name         Instructions Cycles
  2516                           ; direct_byte            9     6 (fixed)
  2517                           ; simple_byte           10     6 (average)
  2518                           ; jumptable            260     6 (fixed)
  2519                           ;	Chosen strategy is direct_byte
  2520                           ;heat.c: 29: break;
  2521                           ;heat.c: 15: switch (current_heat_mode)
  2522  021F  0084               	movwf	4
  2523  0220  3003               	movlw	3
  2524  0221  0204               	subwf	4,w
  2525  0222  1803               	btfsc	3,0
  2526  0223  0008               	return
  2527  0224  3000               	movlw	high S5011
  2528  0225  008A               	movwf	10
  2529  0226  3005               	movlw	low S5011
  2530  0227  0704               	addwf	4,w
  2531  0228  0082               	movwf	2
  2532  0229  0008               	return
  2533  022A                     l4705:	
  2534                           
  2535                           ;heat.c: 18: hardware_pwm_control(0);
  2536  022A  3000               	movlw	0
  2537  022B  2352               	fcall	_hardware_pwm_control
  2538                           
  2539                           ;heat.c: 19: PORTB0 = 1;
  2540  022C  1406               	bsf	6,0	;volatile
  2541                           
  2542                           ;heat.c: 20: break;
  2543  022D  0008               	return
  2544  022E                     l4709:	
  2545                           
  2546                           ;heat.c: 23: hardware_pwm_control(1);
  2547  022E  3001               	movlw	1
  2548  022F  2B52               	ljmp	_hardware_pwm_control
  2549  0230                     l4711:	
  2550                           
  2551                           ;heat.c: 24: break;
  2552                           ;heat.c: 27: hardware_pwm_control(0);
  2553  0230  3000               	movlw	0
  2554  0231  2352               	fcall	_hardware_pwm_control
  2555                           
  2556                           ;heat.c: 28: hardware_stop_heat();
  2557  0232  2B88               	ljmp	l4697
  2558  0233                     __end_of_hardware_set_heat:	
  2559                           
  2560                           	psect	swtext2
  2561  0005                     __pswtext2:	
  2562  0005                     S5011:	
  2563  0005  2A30               	ljmp	l4711
  2564  0006  2A2E               	ljmp	l4709
  2565  0007  2A2A               	ljmp	l4705
  2566                           
  2567                           	psect	text22
  2568  0388                     __ptext22:	
  2569  0388                     _hardware_stop_heat:	
  2570 ;; *************** function _hardware_stop_heat *****************
  2571 ;; Defined at:
  2572 ;;		line 73 in file "heat.c"
  2573 ;; Parameters:    Size  Location     Type
  2574 ;;		None
  2575 ;; Auto vars:     Size  Location     Type
  2576 ;;		None
  2577 ;; Return value:  Size  Location     Type
  2578 ;;                  1    wreg      void 
  2579 ;; Registers used:
  2580 ;;		status,2
  2581 ;; Tracked objects:
  2582 ;;		On entry : 100/0
  2583 ;;		On exit  : 100/0
  2584 ;;		Unchanged: 0/0
  2585 ;; Data sizes:     COMMON   BANK0  BANK1h  BANK1l
  2586 ;;      Params:         0       0       0       0
  2587 ;;      Locals:         0       0       0       0
  2588 ;;      Temps:          0       0       0       0
  2589 ;;      Totals:         0       0       0       0
  2590 ;;Total ram usage:        0 bytes
  2591 ;; Hardware stack levels used:    1
  2592 ;; Hardware stack levels required when called:    6
  2593 ;; This function calls:
  2594 ;;		Nothing
  2595 ;; This function is called by:
  2596 ;;		_hardware_set_heat
  2597 ;;		_Heat_Stop
  2598 ;; This function uses a non-reentrant model
  2599 ;;
  2600                           ;psect for function _hardware_stop_heat
  2601                           
  2602  0388                     l4697:	
  2603                           
  2604                           ;incstack = 0
  2605 ;; hardware stack exceeded
  2606                           ; Regs used in _hardware_stop_heat: [status,2]
  2607                           ;heat.c: 75: TRISB=0X00;
  2608  0388  01C6               	clrf	70	;volatile
  2609                           
  2610                           ;heat.c: 76: PORTB0 = 0;
  2611  0389  1006               	bcf	6,0	;volatile
  2612  038A  0008               	return
  2613  038B                     __end_of_hardware_stop_heat:	
  2614                           
  2615                           	psect	text23
  2616  0352                     __ptext23:	
  2617  0352                     _hardware_pwm_control:	
  2618 ;; *************** function _hardware_pwm_control *****************
  2619 ;; Defined at:
  2620 ;;		line 34 in file "heat.c"
  2621 ;; Parameters:    Size  Location     Type
  2622 ;;  enable          1    wreg     unsigned char 
  2623 ;; Auto vars:     Size  Location     Type
  2624 ;;  enable          1    7[BANK0 ] unsigned char 
  2625 ;; Return value:  Size  Location     Type
  2626 ;;                  1    wreg      void 
  2627 ;; Registers used:
  2628 ;;		wreg, status,2, status,0
  2629 ;; Tracked objects:
  2630 ;;		On entry : 100/0
  2631 ;;		On exit  : 100/0
  2632 ;;		Unchanged: 0/0
  2633 ;; Data sizes:     COMMON   BANK0  BANK1h  BANK1l
  2634 ;;      Params:         0       0       0       0
  2635 ;;      Locals:         0       1       0       0
  2636 ;;      Temps:          0       0       0       0
  2637 ;;      Totals:         0       1       0       0
  2638 ;;Total ram usage:        1 bytes
  2639 ;; Hardware stack levels used:    1
  2640 ;; Hardware stack levels required when called:    6
  2641 ;; This function calls:
  2642 ;;		Nothing
  2643 ;; This function is called by:
  2644 ;;		_hardware_set_heat
  2645 ;;		_Heat_Stop
  2646 ;; This function uses a non-reentrant model
  2647 ;;
  2648                           ;psect for function _hardware_pwm_control
  2649                           
  2650                           
  2651                           ;incstack = 0
  2652 ;; hardware stack exceeded
  2653                           ; Regs used in _hardware_pwm_control: [wreg+status,2+status,0]
  2654                           ;hardware_pwm_control@enable stored from wreg
  2655  0352  00B1               	movwf	hardware_pwm_control@enable
  2656                           
  2657                           ;heat.c: 36: pwm_enabled = enable;
  2658  0353  00A9               	movwf	_pwm_enabled
  2659                           
  2660                           ;heat.c: 37: if (!enable)
  2661  0354  0831               	movf	hardware_pwm_control@enable,w
  2662  0355  1903               	btfsc	3,2
  2663                           
  2664                           ;heat.c: 38: {
  2665                           ;heat.c: 39: PORTB0 = 0;
  2666  0356  1006               	bcf	6,0	;volatile
  2667  0357  0008               	return
  2668  0358                     __end_of_hardware_pwm_control:	
  2669                           
  2670                           	psect	text24
  2671  038B                     __ptext24:	
  2672  038B                     _Heat_SetMode:	
  2673 ;; *************** function _Heat_SetMode *****************
  2674 ;; Defined at:
  2675 ;;		line 113 in file "heat.c"
  2676 ;; Parameters:    Size  Location     Type
  2677 ;;  newmode         1    wreg     enum E518
  2678 ;; Auto vars:     Size  Location     Type
  2679 ;;  newmode         1    7[BANK0 ] enum E518
  2680 ;; Return value:  Size  Location     Type
  2681 ;;                  1    wreg      void 
  2682 ;; Registers used:
  2683 ;;		wreg
  2684 ;; Tracked objects:
  2685 ;;		On entry : 100/0
  2686 ;;		On exit  : 100/0
  2687 ;;		Unchanged: 0/0
  2688 ;; Data sizes:     COMMON   BANK0  BANK1h  BANK1l
  2689 ;;      Params:         0       0       0       0
  2690 ;;      Locals:         0       1       0       0
  2691 ;;      Temps:          0       0       0       0
  2692 ;;      Totals:         0       1       0       0
  2693 ;;Total ram usage:        1 bytes
  2694 ;; Hardware stack levels used:    1
  2695 ;; Hardware stack levels required when called:    6
  2696 ;; This function calls:
  2697 ;;		Nothing
  2698 ;; This function is called by:
  2699 ;;		_Heat_Toggle
  2700 ;;		_HEAT_EnergySave
  2701 ;; This function uses a non-reentrant model
  2702 ;;
  2703                           ;psect for function _Heat_SetMode
  2704                           
  2705                           
  2706                           ;incstack = 0
  2707                           ; Regs used in _Heat_SetMode: [wreg]
  2708                           ;Heat_SetMode@newmode stored from wreg
  2709  038B  00B1               	movwf	Heat_SetMode@newmode
  2710                           
  2711                           ;heat.c: 116: current_heat_mode = newmode;
  2712  038C  00A8               	movwf	_current_heat_mode
  2713  038D  0008               	return
  2714  038E                     __end_of_Heat_SetMode:	
  2715                           
  2716                           	psect	text25
  2717  02C1                     __ptext25:	
  2718  02C1                     _DelayMs:	
  2719 ;; *************** function _DelayMs *****************
  2720 ;; Defined at:
  2721 ;;		line 5 in file "main.c"
  2722 ;; Parameters:    Size  Location     Type
  2723 ;;  t               2    8[BANK0 ] unsigned int 
  2724 ;; Auto vars:     Size  Location     Type
  2725 ;;		None
  2726 ;; Return value:  Size  Location     Type
  2727 ;;                  1    wreg      void 
  2728 ;; Registers used:
  2729 ;;		wreg, status,2, status,0, pclath, cstack
  2730 ;; Tracked objects:
  2731 ;;		On entry : 100/0
  2732 ;;		On exit  : 100/0
  2733 ;;		Unchanged: 0/0
  2734 ;; Data sizes:     COMMON   BANK0  BANK1h  BANK1l
  2735 ;;      Params:         0       2       0       0
  2736 ;;      Locals:         0       0       0       0
  2737 ;;      Temps:          0       0       0       0
  2738 ;;      Totals:         0       2       0       0
  2739 ;;Total ram usage:        2 bytes
  2740 ;; Hardware stack levels used:    1
  2741 ;; Hardware stack levels required when called:    7
  2742 ;; This function calls:
  2743 ;;		_DelayUs2x
  2744 ;; This function is called by:
  2745 ;;		_main
  2746 ;; This function uses a non-reentrant model
  2747 ;;
  2748                           ;psect for function _DelayMs
  2749                           
  2750  02C1                     l4879:	
  2751                           
  2752                           ;main.c: 8: while(t--)
  2753                           ;incstack = 0
  2754                           ; Regs used in _DelayMs: [wreg+status,2+status,0+pclath+cstack]
  2755  02C1  3001               	movlw	1
  2756  02C2  02B2               	subwf	DelayMs@t,f
  2757  02C3  3000               	movlw	0
  2758  02C4  1C03               	btfss	3,0
  2759  02C5  03B3               	decf	DelayMs@t+1,f
  2760  02C6  02B3               	subwf	DelayMs@t+1,f
  2761  02C7  0F32               	incfsz	DelayMs@t,w
  2762  02C8  2ACC               	goto	l4877
  2763  02C9  0A33               	incf	DelayMs@t+1,w
  2764  02CA  1903               	btfsc	3,2
  2765  02CB  0008               	return
  2766  02CC                     l4877:	
  2767                           
  2768                           ;main.c: 9: {
  2769                           ;main.c: 11: DelayUs2x(120);
  2770  02CC  3078               	movlw	120
  2771  02CD  237A               	fcall	_DelayUs2x
  2772                           
  2773                           ;main.c: 12: DelayUs2x(125);
  2774  02CE  307D               	movlw	125
  2775  02CF  237A               	fcall	_DelayUs2x
  2776  02D0  2AC1               	goto	l4879
  2777  02D1                     __end_of_DelayMs:	
  2778                           
  2779                           	psect	text26
  2780  037A                     __ptext26:	
  2781  037A                     _DelayUs2x:	
  2782 ;; *************** function _DelayUs2x *****************
  2783 ;; Defined at:
  2784 ;;		line 91 in file "key_1.c"
  2785 ;; Parameters:    Size  Location     Type
  2786 ;;  t               1    wreg     unsigned char 
  2787 ;; Auto vars:     Size  Location     Type
  2788 ;;  t               1    7[BANK0 ] unsigned char 
  2789 ;; Return value:  Size  Location     Type
  2790 ;;                  1    wreg      void 
  2791 ;; Registers used:
  2792 ;;		wreg
  2793 ;; Tracked objects:
  2794 ;;		On entry : 100/0
  2795 ;;		On exit  : 100/0
  2796 ;;		Unchanged: 0/0
  2797 ;; Data sizes:     COMMON   BANK0  BANK1h  BANK1l
  2798 ;;      Params:         0       0       0       0
  2799 ;;      Locals:         0       1       0       0
  2800 ;;      Temps:          0       0       0       0
  2801 ;;      Totals:         0       1       0       0
  2802 ;;Total ram usage:        1 bytes
  2803 ;; Hardware stack levels used:    1
  2804 ;; Hardware stack levels required when called:    6
  2805 ;; This function calls:
  2806 ;;		Nothing
  2807 ;; This function is called by:
  2808 ;;		_DelayMs
  2809 ;; This function uses a non-reentrant model
  2810 ;;
  2811                           ;psect for function _DelayUs2x
  2812                           
  2813                           
  2814                           ;incstack = 0
  2815                           ; Regs used in _DelayUs2x: [wreg]
  2816                           ;DelayUs2x@t stored from wreg
  2817  037A  00B1               	movwf	DelayUs2x@t
  2818  037B                     l4727:	
  2819                           
  2820                           ;key_1.c: 93: while(--t);
  2821  037B  0BB1               	decfsz	DelayUs2x@t,f
  2822  037C  2B7B               	goto	l4727
  2823  037D  0008               	return
  2824  037E                     __end_of_DelayUs2x:	
  2825                           
  2826                           	psect	text27
  2827  0199                     __ptext27:	
  2828  0199                     _Timer0_Isr:	
  2829 ;; *************** function _Timer0_Isr *****************
  2830 ;; Defined at:
  2831 ;;		line 155 in file "main.c"
  2832 ;; Parameters:    Size  Location     Type
  2833 ;;		None
  2834 ;; Auto vars:     Size  Location     Type
  2835 ;;		None
  2836 ;; Return value:  Size  Location     Type
  2837 ;;                  1    wreg      void 
  2838 ;; Registers used:
  2839 ;;		wreg, fsr0l, fsr0h, status,2, status,0, pclath, cstack
  2840 ;; Tracked objects:
  2841 ;;		On entry : 0/0
  2842 ;;		On exit  : 100/0
  2843 ;;		Unchanged: 0/0
  2844 ;; Data sizes:     COMMON   BANK0  BANK1h  BANK1l
  2845 ;;      Params:         0       0       0       0
  2846 ;;      Locals:         0       0       0       0
  2847 ;;      Temps:          0       4       0       0
  2848 ;;      Totals:         0       4       0       0
  2849 ;;Total ram usage:        4 bytes
  2850 ;; Hardware stack levels used:    1
  2851 ;; Hardware stack levels required when called:    5
  2852 ;; This function calls:
  2853 ;;		_Motor_Process
  2854 ;;		_System_TimerHandler
  2855 ;;		_hardware_set_half_power
  2856 ;;		_key_tick
  2857 ;; This function is called by:
  2858 ;;		Interrupt level 1
  2859 ;; This function uses a non-reentrant model
  2860 ;;
  2861                           ;psect for function _Timer0_Isr
  2862                           
  2863                           
  2864                           ;main.c: 158: if(T0IF)
  2865  0199  1D8E               	btfss	14,3	;volatile
  2866  019A  29A2               	goto	i1l4621
  2867                           
  2868                           ;main.c: 159: {
  2869                           ;main.c: 160: T0IF=0;
  2870  019B  118E               	bcf	14,3	;volatile
  2871                           
  2872                           ;main.c: 161: T0=0xF0;
  2873  019C  30F0               	movlw	240
  2874  019D  0081               	movwf	1	;volatile
  2875                           
  2876                           ;main.c: 162: key_tick();
  2877  019E  21E9               	fcall	_key_tick
  2878                           
  2879                           ;main.c: 163: System_TimerHandler();
  2880  019F  21C9               	fcall	_System_TimerHandler
  2881                           
  2882                           ;main.c: 164: Motor_Process();
  2883  01A0  2079               	fcall	_Motor_Process
  2884                           
  2885                           ;main.c: 165: hardware_set_half_power();
  2886  01A1  22D1               	fcall	_hardware_set_half_power
  2887  01A2                     i1l4621:	
  2888                           
  2889                           ;main.c: 168: }
  2890                           ;main.c: 169: if (T1IF)
  2891  01A2  1C4B               	btfss	75,0	;volatile
  2892  01A3  29A7               	goto	i1l2016
  2893                           
  2894                           ;main.c: 170: {
  2895                           ;main.c: 171: T1IF=0;
  2896  01A4  104B               	bcf	75,0	;volatile
  2897                           
  2898                           ;main.c: 172: T1IE=1;
  2899  01A5  14CB               	bsf	75,1	;volatile
  2900                           
  2901                           ;main.c: 173: TRISB2=0;
  2902  01A6  1146               	bcf	70,2	;volatile
  2903  01A7                     i1l2016:	
  2904                           
  2905                           ;main.c: 174: }
  2906                           ;main.c: 175: if (T2IF)
  2907  01A7  1ECB               	btfss	75,5	;volatile
  2908  01A8  29AC               	goto	i1l2018
  2909                           
  2910                           ;main.c: 176: {
  2911                           ;main.c: 177: T2IF=0;
  2912  01A9  12CB               	bcf	75,5	;volatile
  2913                           
  2914                           ;main.c: 178: T2IE=1;
  2915  01AA  174B               	bsf	75,6	;volatile
  2916                           
  2917                           ;main.c: 179: TRISB3=0;
  2918  01AB  11C6               	bcf	70,3	;volatile
  2919  01AC                     i1l2018:	
  2920  01AC  0830               	movf	??_Timer0_Isr+3,w
  2921  01AD  00BF               	movwf	63
  2922  01AE  1A83               	btfsc	3,5
  2923  01AF  29B4               	goto	FF_BANK10
  2924  01B0  1683               	bsf	3,5
  2925  01B1  00BF               	movwf	63
  2926  01B2  1283               	bcf	3,5
  2927  01B3  29B7               	goto	EXIT_BANK_FF0
  2928  01B4                     FF_BANK10:	
  2929  01B4  1283               	bcf	3,5
  2930  01B5  00BF               	movwf	63
  2931  01B6  1683               	bsf	3,5
  2932  01B7                     EXIT_BANK_FF0:	
  2933  01B7  082F               	movf	??_Timer0_Isr+2,w
  2934  01B8  008A               	movwf	10
  2935  01B9  082E               	movf	??_Timer0_Isr+1,w
  2936  01BA  0084               	movwf	4
  2937  01BB  18AD               	btfsc	??_Timer0_Isr^0,1
  2938  01BC  29C2               	goto	REV_BANK1
  2939  01BD  0E2D               	swapf	??_Timer0_Isr^0,w
  2940  01BE  0083               	movwf	3
  2941  01BF  0EBE               	swapf	62,f
  2942  01C0  0E3E               	swapf	62,w
  2943  01C1  0009               	retfie
  2944  01C2                     REV_BANK1:	
  2945  01C2  0E2D               	swapf	??_Timer0_Isr^0,w
  2946  01C3  0083               	movwf	3
  2947  01C4  1283               	bcf	3,5
  2948  01C5  0EBE               	swapf	62,f
  2949  01C6  0E3E               	swapf	62,w
  2950  01C7  1683               	bsf	3,5
  2951  01C8  0009               	retfie
  2952  01C9                     __end_of_Timer0_Isr:	
  2953                           
  2954                           	psect	intentry
  2955  0008                     __pintentry:	
  2956  0008                     interrupt_function:	
  2957                           ;incstack = 0
  2958 ;; hardware stack exceeded
  2959                           ; Regs used in _Timer0_Isr: [wreg-fsr0h+status,2+status,0+pclath+cstack]
  2960                           
  2961  003E                     saved_w	set	btemp
  2962  0008  1A83               	btfsc	3,5
  2963  0009  280C               	goto	SAVE_BANK1
  2964  000A  00BE               	movwf	btemp
  2965  000B  280F               	goto	EXIT_BANK_SAVE
  2966  000C                     SAVE_BANK1:	
  2967  000C  1283               	bcf	3,5
  2968  000D  00BE               	movwf	btemp
  2969  000E  1683               	bsf	3,5
  2970  000F                     EXIT_BANK_SAVE:	
  2971  000F  0E03               	swapf	3,w
  2972  0010  1283               	bcf	3,5	;RP0=0, select bank0
  2973  0011  00AD               	movwf	??_Timer0_Isr
  2974  0012  0804               	movf	4,w
  2975  0013  00AE               	movwf	??_Timer0_Isr+1
  2976  0014  080A               	movf	10,w
  2977  0015  00AF               	movwf	??_Timer0_Isr+2
  2978  0016  083F               	movf	btemp+1,w
  2979  0017  00B0               	movwf	??_Timer0_Isr+3
  2980  0018  2999               	ljmp	_Timer0_Isr
  2981                           
  2982                           	psect	text28
  2983  01E9                     __ptext28:	
  2984  01E9                     _key_tick:	
  2985 ;; *************** function _key_tick *****************
  2986 ;; Defined at:
  2987 ;;		line 171 in file "key_1.c"
  2988 ;; Parameters:    Size  Location     Type
  2989 ;;		None
  2990 ;; Auto vars:     Size  Location     Type
  2991 ;;		None
  2992 ;; Return value:  Size  Location     Type
  2993 ;;                  1    wreg      void 
  2994 ;; Registers used:
  2995 ;;		wreg, status,2, status,0, pclath, cstack
  2996 ;; Tracked objects:
  2997 ;;		On entry : 100/0
  2998 ;;		On exit  : 100/0
  2999 ;;		Unchanged: 0/0
  3000 ;; Data sizes:     COMMON   BANK0  BANK1h  BANK1l
  3001 ;;      Params:         0       0       0       0
  3002 ;;      Locals:         0       0       0       0
  3003 ;;      Temps:          0       0       0       0
  3004 ;;      Totals:         0       0       0       0
  3005 ;;Total ram usage:        0 bytes
  3006 ;; Hardware stack levels used:    1
  3007 ;; Hardware stack levels required when called:    2
  3008 ;; This function calls:
  3009 ;;		_key_scan
  3010 ;; This function is called by:
  3011 ;;		_Timer0_Isr
  3012 ;; This function uses a non-reentrant model
  3013 ;;
  3014                           ;psect for function _key_tick
  3015                           
  3016                           
  3017                           ;key_1.c: 173: static unsigned char stable_cnt = 0;
  3018                           ;key_1.c: 174: static unsigned char last_key = 0;
  3019                           ;key_1.c: 175: static unsigned char key_released = 1;
  3020                           ;key_1.c: 177: key_scan();
  3021                           ;incstack = 0
  3022                           ; Regs used in _key_tick: [wreg+status,2+status,0+pclath+cstack]
  3023  01E9  215B               	fcall	_key_scan
  3024                           
  3025                           ;key_1.c: 179: if (key == last_key)
  3026  01EA  0826               	movf	_key,w
  3027  01EB  0622               	xorwf	key_tick@last_key,w
  3028  01EC  1D03               	btfss	3,2
  3029  01ED  2A04               	goto	i1l4431
  3030                           
  3031                           ;key_1.c: 180: {
  3032                           ;key_1.c: 182: if (stable_cnt < 40)
  3033  01EE  3028               	movlw	40
  3034  01EF  0223               	subwf	key_tick@stable_cnt,w
  3035  01F0  1803               	btfsc	3,0
  3036  01F1  29F4               	goto	i1l4417
  3037                           
  3038                           ;key_1.c: 183: stable_cnt++;
  3039  01F2  0AA3               	incf	key_tick@stable_cnt,f
  3040  01F3  0008               	return
  3041  01F4                     i1l4417:	
  3042                           
  3043                           ;key_1.c: 184: else
  3044                           ;key_1.c: 185: {
  3045                           ;key_1.c: 187: if (key != 0 && key_released == 1)
  3046  01F4  0826               	movf	_key,w
  3047  01F5  1903               	btfsc	3,2
  3048  01F6  29FD               	goto	i1l4425
  3049  01F7  0B36               	decfsz	key_tick@key_released,w
  3050  01F8  29FD               	goto	i1l4425
  3051                           
  3052                           ;key_1.c: 188: {
  3053                           ;key_1.c: 189: final_key = key;
  3054  01F9  0826               	movf	_key,w
  3055  01FA  00A5               	movwf	_final_key
  3056                           
  3057                           ;key_1.c: 190: key_released = 0;
  3058  01FB  01B6               	clrf	key_tick@key_released
  3059                           
  3060                           ;key_1.c: 191: }
  3061  01FC  0008               	return
  3062  01FD                     i1l4425:	
  3063                           
  3064                           ;key_1.c: 193: else if (key == 0)
  3065  01FD  0826               	movf	_key,w
  3066  01FE  1D03               	btfss	3,2
  3067  01FF  0008               	return
  3068                           
  3069                           ;key_1.c: 194: {
  3070                           ;key_1.c: 195: final_key = 0;
  3071  0200  01A5               	clrf	_final_key
  3072                           
  3073                           ;key_1.c: 196: key_released = 1;
  3074  0201  01B6               	clrf	key_tick@key_released
  3075  0202  0AB6               	incf	key_tick@key_released,f
  3076                           
  3077                           ;key_1.c: 197: }
  3078                           ;key_1.c: 198: }
  3079                           ;key_1.c: 199: }
  3080  0203  0008               	return
  3081  0204                     i1l4431:	
  3082                           
  3083                           ;key_1.c: 200: else
  3084                           ;key_1.c: 201: {
  3085                           ;key_1.c: 203: stable_cnt = 0;
  3086  0204  01A3               	clrf	key_tick@stable_cnt
  3087                           
  3088                           ;key_1.c: 204: last_key = key;
  3089  0205  0826               	movf	_key,w
  3090  0206  00A2               	movwf	key_tick@last_key
  3091  0207  0008               	return
  3092  0208                     __end_of_key_tick:	
  3093                           
  3094                           	psect	text29
  3095  015B                     __ptext29:	
  3096  015B                     _key_scan:	
  3097 ;; *************** function _key_scan *****************
  3098 ;; Defined at:
  3099 ;;		line 96 in file "key_1.c"
  3100 ;; Parameters:    Size  Location     Type
  3101 ;;		None
  3102 ;; Auto vars:     Size  Location     Type
  3103 ;;		None
  3104 ;; Return value:  Size  Location     Type
  3105 ;;                  1    wreg      void 
  3106 ;; Registers used:
  3107 ;;		wreg, status,2, status,0, pclath, cstack
  3108 ;; Tracked objects:
  3109 ;;		On entry : 100/0
  3110 ;;		On exit  : 100/0
  3111 ;;		Unchanged: 0/0
  3112 ;; Data sizes:     COMMON   BANK0  BANK1h  BANK1l
  3113 ;;      Params:         0       0       0       0
  3114 ;;      Locals:         0       0       0       0
  3115 ;;      Temps:          0       0       0       0
  3116 ;;      Totals:         0       0       0       0
  3117 ;;Total ram usage:        0 bytes
  3118 ;; Hardware stack levels used:    1
  3119 ;; Hardware stack levels required when called:    1
  3120 ;; This function calls:
  3121 ;;		_keymode0_configuration
  3122 ;;		_keymode1_configuration
  3123 ;;		_keymode2_configuration
  3124 ;;		_keymode3_configuration
  3125 ;;		i1_DelayUs2x
  3126 ;; This function is called by:
  3127 ;;		_key_tick
  3128 ;; This function uses a non-reentrant model
  3129 ;;
  3130                           ;psect for function _key_scan
  3131                           
  3132                           
  3133                           ;key_1.c: 99: key=0;
  3134                           ;incstack = 0
  3135                           ; Regs used in _key_scan: [wreg+status,2+status,0+pclath+cstack]
  3136  015B  01A6               	clrf	_key
  3137                           
  3138                           ;key_1.c: 100: if(key_mode==0)
  3139  015C  0824               	movf	_key_mode,w
  3140  015D  1D03               	btfss	3,2
  3141  015E  2972               	goto	i1l4187
  3142                           
  3143                           ;key_1.c: 101: {
  3144                           ;key_1.c: 102: keymode0_configuration();
  3145  015F  2318               	fcall	_keymode0_configuration
  3146                           
  3147                           ;key_1.c: 103: DelayUs2x(10);
  3148  0160  300A               	movlw	10
  3149  0161  237E               	fcall	i1_DelayUs2x
  3150                           
  3151                           ;key_1.c: 104: if(PORTA7==0)
  3152  0162  1B85               	btfsc	5,7	;volatile
  3153  0163  296C               	goto	i1l1452
  3154                           
  3155                           ;key_1.c: 105: {
  3156                           ;key_1.c: 106: key=10;key_mode=0;return;
  3157  0164  300A               	movlw	10
  3158  0165  2969               	goto	L9
  3159  0166                     i1l4173:	
  3160                           
  3161                           ;key_1.c: 109: {
  3162                           ;key_1.c: 110: key=12;key_mode=0;return;
  3163  0166  300C               	movlw	12
  3164  0167  2969               	goto	L9
  3165  0168                     i1l4179:	
  3166                           
  3167                           ;key_1.c: 113: {
  3168                           ;key_1.c: 114: key=5;key_mode=0;return;
  3169  0168  3005               	movlw	5
  3170  0169                     L9:	
  3171  0169  00A6               	movwf	_key
  3172  016A                     i1l4169:	
  3173  016A  01A4               	clrf	_key_mode
  3174  016B  0008               	return
  3175  016C                     i1l1452:	
  3176                           
  3177                           ;key_1.c: 107: }
  3178                           ;key_1.c: 108: if(PORTA6==0)
  3179  016C  1F05               	btfss	5,6	;volatile
  3180  016D  2966               	goto	i1l4173
  3181                           
  3182                           ;key_1.c: 111: }
  3183                           ;key_1.c: 112: if(PORTA4==0)
  3184  016E  1E05               	btfss	5,4	;volatile
  3185  016F  2968               	goto	i1l4179
  3186                           
  3187                           ;key_1.c: 116: else
  3188                           ;key_1.c: 117: {
  3189                           ;key_1.c: 118: key_mode=1;
  3190  0170  01A4               	clrf	_key_mode
  3191  0171  0AA4               	incf	_key_mode,f
  3192  0172                     i1l4187:	
  3193                           
  3194                           ;key_1.c: 119: }
  3195                           ;key_1.c: 120: }
  3196                           ;key_1.c: 121: if(key_mode==1)
  3197  0172  0324               	decf	_key_mode,w
  3198  0173  1D03               	btfss	3,2
  3199  0174  297F               	goto	i1l4203
  3200                           
  3201                           ;key_1.c: 122: {
  3202                           ;key_1.c: 123: keymode1_configuration();
  3203  0175  234B               	fcall	_keymode1_configuration
  3204                           
  3205                           ;key_1.c: 124: DelayUs2x(10);
  3206  0176  300A               	movlw	10
  3207  0177  237E               	fcall	i1_DelayUs2x
  3208                           
  3209                           ;key_1.c: 125: if(PORTA7==1)
  3210  0178  1F85               	btfss	5,7	;volatile
  3211  0179  297D               	goto	i1l4201
  3212                           
  3213                           ;key_1.c: 126: {
  3214                           ;key_1.c: 127: key=1;key_mode=0;return;
  3215  017A  01A6               	clrf	_key
  3216  017B  0AA6               	incf	_key,f
  3217  017C  296A               	goto	i1l4169
  3218  017D                     i1l4201:	
  3219                           
  3220                           ;key_1.c: 129: else
  3221                           ;key_1.c: 130: {
  3222                           ;key_1.c: 131: key_mode=2;
  3223  017D  3002               	movlw	2
  3224  017E  00A4               	movwf	_key_mode
  3225  017F                     i1l4203:	
  3226                           
  3227                           ;key_1.c: 132: }
  3228                           ;key_1.c: 133: }
  3229                           ;key_1.c: 134: if(key_mode==2)
  3230  017F  3002               	movlw	2
  3231  0180  0624               	xorwf	_key_mode,w
  3232  0181  1D03               	btfss	3,2
  3233  0182  298C               	goto	i1l4219
  3234                           
  3235                           ;key_1.c: 135: {
  3236                           ;key_1.c: 136: keymode3_configuration();
  3237  0183  233D               	fcall	_keymode3_configuration
  3238                           
  3239                           ;key_1.c: 137: DelayUs2x(10);
  3240  0184  300A               	movlw	10
  3241  0185  237E               	fcall	i1_DelayUs2x
  3242                           
  3243                           ;key_1.c: 139: if (PORTA4==1)
  3244  0186  1E05               	btfss	5,4	;volatile
  3245  0187  298A               	goto	i1l4217
  3246                           
  3247                           ;key_1.c: 140: {
  3248                           ;key_1.c: 141: key=2;key_mode=0;return;
  3249  0188  3002               	movlw	2
  3250  0189  2969               	goto	L9
  3251  018A                     i1l4217:	
  3252                           
  3253                           ;key_1.c: 143: else
  3254                           ;key_1.c: 144: {
  3255                           ;key_1.c: 145: key_mode=3;
  3256  018A  3003               	movlw	3
  3257  018B  00A4               	movwf	_key_mode
  3258  018C                     i1l4219:	
  3259                           
  3260                           ;key_1.c: 146: }
  3261                           ;key_1.c: 148: }
  3262                           ;key_1.c: 149: if(key_mode==3)
  3263  018C  3003               	movlw	3
  3264  018D  0624               	xorwf	_key_mode,w
  3265  018E  1D03               	btfss	3,2
  3266  018F  0008               	return
  3267                           
  3268                           ;key_1.c: 150: {
  3269                           ;key_1.c: 151: key_mode=0;
  3270  0190  01A4               	clrf	_key_mode
  3271                           
  3272                           ;key_1.c: 152: keymode2_configuration();
  3273  0191  2344               	fcall	_keymode2_configuration
  3274                           
  3275                           ;key_1.c: 153: DelayUs2x(10);
  3276  0192  300A               	movlw	10
  3277  0193  237E               	fcall	i1_DelayUs2x
  3278                           
  3279                           ;key_1.c: 154: if(PORTA6==1)
  3280  0194  1F05               	btfss	5,6	;volatile
  3281  0195  0008               	return
  3282                           
  3283                           ;key_1.c: 155: {
  3284                           ;key_1.c: 156: key=8;return;
  3285  0196  3008               	movlw	8
  3286  0197  00A6               	movwf	_key
  3287  0198  0008               	return
  3288  0199                     __end_of_key_scan:	
  3289                           
  3290                           	psect	text30
  3291  037E                     __ptext30:	
  3292  037E                     i1_DelayUs2x:	
  3293 ;; *************** function i1_DelayUs2x *****************
  3294 ;; Defined at:
  3295 ;;		line 91 in file "key_1.c"
  3296 ;; Parameters:    Size  Location     Type
  3297 ;;  t               1    wreg     unsigned char 
  3298 ;; Auto vars:     Size  Location     Type
  3299 ;;  t               1    0[BANK0 ] unsigned char 
  3300 ;; Return value:  Size  Location     Type
  3301 ;;                  1    wreg      void 
  3302 ;; Registers used:
  3303 ;;		wreg
  3304 ;; Tracked objects:
  3305 ;;		On entry : 100/0
  3306 ;;		On exit  : 100/0
  3307 ;;		Unchanged: 0/0
  3308 ;; Data sizes:     COMMON   BANK0  BANK1h  BANK1l
  3309 ;;      Params:         0       0       0       0
  3310 ;;      Locals:         0       1       0       0
  3311 ;;      Temps:          0       0       0       0
  3312 ;;      Totals:         0       1       0       0
  3313 ;;Total ram usage:        1 bytes
  3314 ;; Hardware stack levels used:    1
  3315 ;; This function calls:
  3316 ;;		Nothing
  3317 ;; This function is called by:
  3318 ;;		_key_scan
  3319 ;; This function uses a non-reentrant model
  3320 ;;
  3321                           ;psect for function i1_DelayUs2x
  3322                           
  3323                           
  3324                           ;incstack = 0
  3325                           ; Regs used in i1_DelayUs2x: [wreg]
  3326                           ;i1DelayUs2x@t stored from wreg
  3327  037E  00AA               	movwf	i1DelayUs2x@t
  3328  037F                     i1l4119:	
  3329                           
  3330                           ;key_1.c: 93: while(--t);
  3331  037F  0BAA               	decfsz	i1DelayUs2x@t,f
  3332  0380  2B7F               	goto	i1l4119
  3333  0381  0008               	return
  3334  0382                     __end_ofi1_DelayUs2x:	
  3335                           
  3336                           	psect	text31
  3337  033D                     __ptext31:	
  3338  033D                     _keymode3_configuration:	
  3339 ;; *************** function _keymode3_configuration *****************
  3340 ;; Defined at:
  3341 ;;		line 72 in file "key_1.c"
  3342 ;; Parameters:    Size  Location     Type
  3343 ;;		None
  3344 ;; Auto vars:     Size  Location     Type
  3345 ;;		None
  3346 ;; Return value:  Size  Location     Type
  3347 ;;                  1    wreg      void 
  3348 ;; Registers used:
  3349 ;;		wreg, status,2
  3350 ;; Tracked objects:
  3351 ;;		On entry : 100/0
  3352 ;;		On exit  : 100/0
  3353 ;;		Unchanged: 0/0
  3354 ;; Data sizes:     COMMON   BANK0  BANK1h  BANK1l
  3355 ;;      Params:         0       0       0       0
  3356 ;;      Locals:         0       0       0       0
  3357 ;;      Temps:          0       0       0       0
  3358 ;;      Totals:         0       0       0       0
  3359 ;;Total ram usage:        0 bytes
  3360 ;; Hardware stack levels used:    1
  3361 ;; This function calls:
  3362 ;;		Nothing
  3363 ;; This function is called by:
  3364 ;;		_key_scan
  3365 ;; This function uses a non-reentrant model
  3366 ;;
  3367                           ;psect for function _keymode3_configuration
  3368                           
  3369                           
  3370                           ;key_1.c: 77: TRISA=0XBF;
  3371                           ;incstack = 0
  3372                           ; Regs used in _keymode3_configuration: [wreg+status,2]
  3373  033D  30BF               	movlw	191
  3374  033E  00C5               	movwf	69	;volatile
  3375                           
  3376                           ;key_1.c: 81: PORTA=0XFF;
  3377  033F  30FF               	movlw	255
  3378  0340  0085               	movwf	5	;volatile
  3379                           
  3380                           ;key_1.c: 85: PHCON1=0XFF;
  3381  0341  00C3               	movwf	67	;volatile
  3382                           
  3383                           ;key_1.c: 89: PDCON1=0x00;
  3384  0342  01C2               	clrf	66	;volatile
  3385  0343  0008               	return
  3386  0344                     __end_of_keymode3_configuration:	
  3387                           
  3388                           	psect	text32
  3389  0344                     __ptext32:	
  3390  0344                     _keymode2_configuration:	
  3391 ;; *************** function _keymode2_configuration *****************
  3392 ;; Defined at:
  3393 ;;		line 53 in file "key_1.c"
  3394 ;; Parameters:    Size  Location     Type
  3395 ;;		None
  3396 ;; Auto vars:     Size  Location     Type
  3397 ;;		None
  3398 ;; Return value:  Size  Location     Type
  3399 ;;                  1    wreg      void 
  3400 ;; Registers used:
  3401 ;;		wreg, status,2
  3402 ;; Tracked objects:
  3403 ;;		On entry : 100/0
  3404 ;;		On exit  : 100/0
  3405 ;;		Unchanged: 0/0
  3406 ;; Data sizes:     COMMON   BANK0  BANK1h  BANK1l
  3407 ;;      Params:         0       0       0       0
  3408 ;;      Locals:         0       0       0       0
  3409 ;;      Temps:          0       0       0       0
  3410 ;;      Totals:         0       0       0       0
  3411 ;;Total ram usage:        0 bytes
  3412 ;; Hardware stack levels used:    1
  3413 ;; This function calls:
  3414 ;;		Nothing
  3415 ;; This function is called by:
  3416 ;;		_key_scan
  3417 ;; This function uses a non-reentrant model
  3418 ;;
  3419                           ;psect for function _keymode2_configuration
  3420                           
  3421                           
  3422                           ;key_1.c: 57: TRISA=0X7F;
  3423                           ;incstack = 0
  3424                           ; Regs used in _keymode2_configuration: [wreg+status,2]
  3425  0344  307F               	movlw	127
  3426  0345  00C5               	movwf	69	;volatile
  3427                           
  3428                           ;key_1.c: 61: PORTA=0XFF;
  3429  0346  30FF               	movlw	255
  3430  0347  0085               	movwf	5	;volatile
  3431                           
  3432                           ;key_1.c: 65: PHCON1=0XFF;
  3433  0348  00C3               	movwf	67	;volatile
  3434                           
  3435                           ;key_1.c: 69: PDCON1=0x00;
  3436  0349  01C2               	clrf	66	;volatile
  3437  034A  0008               	return
  3438  034B                     __end_of_keymode2_configuration:	
  3439                           
  3440                           	psect	text33
  3441  034B                     __ptext33:	
  3442  034B                     _keymode1_configuration:	
  3443 ;; *************** function _keymode1_configuration *****************
  3444 ;; Defined at:
  3445 ;;		line 34 in file "key_1.c"
  3446 ;; Parameters:    Size  Location     Type
  3447 ;;		None
  3448 ;; Auto vars:     Size  Location     Type
  3449 ;;		None
  3450 ;; Return value:  Size  Location     Type
  3451 ;;                  1    wreg      void 
  3452 ;; Registers used:
  3453 ;;		wreg, status,2
  3454 ;; Tracked objects:
  3455 ;;		On entry : 100/0
  3456 ;;		On exit  : 100/0
  3457 ;;		Unchanged: 0/0
  3458 ;; Data sizes:     COMMON   BANK0  BANK1h  BANK1l
  3459 ;;      Params:         0       0       0       0
  3460 ;;      Locals:         0       0       0       0
  3461 ;;      Temps:          0       0       0       0
  3462 ;;      Totals:         0       0       0       0
  3463 ;;Total ram usage:        0 bytes
  3464 ;; Hardware stack levels used:    1
  3465 ;; This function calls:
  3466 ;;		Nothing
  3467 ;; This function is called by:
  3468 ;;		_key_scan
  3469 ;; This function uses a non-reentrant model
  3470 ;;
  3471                           ;psect for function _keymode1_configuration
  3472                           
  3473                           
  3474                           ;key_1.c: 38: TRISA=0XEF;
  3475                           ;incstack = 0
  3476                           ; Regs used in _keymode1_configuration: [wreg+status,2]
  3477  034B  30EF               	movlw	239
  3478  034C  00C5               	movwf	69	;volatile
  3479                           
  3480                           ;key_1.c: 42: PORTA=0XFF;
  3481  034D  30FF               	movlw	255
  3482  034E  0085               	movwf	5	;volatile
  3483                           
  3484                           ;key_1.c: 46: PHCON1=0XFF;
  3485  034F  00C3               	movwf	67	;volatile
  3486                           
  3487                           ;key_1.c: 50: PDCON1=0x00;
  3488  0350  01C2               	clrf	66	;volatile
  3489  0351  0008               	return
  3490  0352                     __end_of_keymode1_configuration:	
  3491                           
  3492                           	psect	text34
  3493  0318                     __ptext34:	
  3494  0318                     _keymode0_configuration:	
  3495 ;; *************** function _keymode0_configuration *****************
  3496 ;; Defined at:
  3497 ;;		line 8 in file "key_1.c"
  3498 ;; Parameters:    Size  Location     Type
  3499 ;;		None
  3500 ;; Auto vars:     Size  Location     Type
  3501 ;;		None
  3502 ;; Return value:  Size  Location     Type
  3503 ;;                  1    wreg      void 
  3504 ;; Registers used:
  3505 ;;		wreg, status,2
  3506 ;; Tracked objects:
  3507 ;;		On entry : 100/0
  3508 ;;		On exit  : 100/0
  3509 ;;		Unchanged: 0/0
  3510 ;; Data sizes:     COMMON   BANK0  BANK1h  BANK1l
  3511 ;;      Params:         0       0       0       0
  3512 ;;      Locals:         0       0       0       0
  3513 ;;      Temps:          0       0       0       0
  3514 ;;      Totals:         0       0       0       0
  3515 ;;Total ram usage:        0 bytes
  3516 ;; Hardware stack levels used:    1
  3517 ;; This function calls:
  3518 ;;		Nothing
  3519 ;; This function is called by:
  3520 ;;		_key_scan
  3521 ;; This function uses a non-reentrant model
  3522 ;;
  3523                           ;psect for function _keymode0_configuration
  3524                           
  3525                           
  3526                           ;key_1.c: 10: ANSELL=0X00;
  3527                           ;incstack = 0
  3528                           ; Regs used in _keymode0_configuration: [wreg+status,2]
  3529  0318  01D6               	clrf	86	;volatile
  3530                           
  3531                           ;key_1.c: 13: TRISA=0XFF;
  3532  0319  30FF               	movlw	255
  3533  031A  00C5               	movwf	69	;volatile
  3534                           
  3535                           ;key_1.c: 17: PORTA=0XFF;
  3536  031B  0085               	movwf	5	;volatile
  3537                           
  3538                           ;key_1.c: 21: PHCON1=0X00;
  3539  031C  01C3               	clrf	67	;volatile
  3540                           
  3541                           ;key_1.c: 22: PHCON=0XFF;
  3542  031D  008D               	movwf	13	;volatile
  3543                           
  3544                           ;key_1.c: 25: PDCON1=0XFF;
  3545  031E  00C2               	movwf	66	;volatile
  3546                           
  3547                           ;key_1.c: 26: PDCON=0XFF;
  3548  031F  008B               	movwf	11	;volatile
  3549                           
  3550                           ;key_1.c: 29: IOCA=0X00;
  3551  0320  0187               	clrf	7	;volatile
  3552                           
  3553                           ;key_1.c: 30: IOCB=0X00;
  3554  0321  0189               	clrf	9	;volatile
  3555  0322  0008               	return
  3556  0323                     __end_of_keymode0_configuration:	
  3557                           
  3558                           	psect	text35
  3559  02D1                     __ptext35:	
  3560  02D1                     _hardware_set_half_power:	
  3561 ;; *************** function _hardware_set_half_power *****************
  3562 ;; Defined at:
  3563 ;;		line 44 in file "heat.c"
  3564 ;; Parameters:    Size  Location     Type
  3565 ;;		None
  3566 ;; Auto vars:     Size  Location     Type
  3567 ;;		None
  3568 ;; Return value:  Size  Location     Type
  3569 ;;                  1    wreg      void 
  3570 ;; Registers used:
  3571 ;;		wreg, status,2, status,0
  3572 ;; Tracked objects:
  3573 ;;		On entry : 100/0
  3574 ;;		On exit  : 100/0
  3575 ;;		Unchanged: 0/0
  3576 ;; Data sizes:     COMMON   BANK0  BANK1h  BANK1l
  3577 ;;      Params:         0       0       0       0
  3578 ;;      Locals:         0       0       0       0
  3579 ;;      Temps:          0       0       0       0
  3580 ;;      Totals:         0       0       0       0
  3581 ;;Total ram usage:        0 bytes
  3582 ;; Hardware stack levels used:    1
  3583 ;; This function calls:
  3584 ;;		Nothing
  3585 ;; This function is called by:
  3586 ;;		_Timer0_Isr
  3587 ;; This function uses a non-reentrant model
  3588 ;;
  3589                           ;psect for function _hardware_set_half_power
  3590                           
  3591                           
  3592                           ;heat.c: 46: static uint8_t pwm_value = 0;
  3593                           ;heat.c: 49: if (!pwm_enabled)
  3594                           ;incstack = 0
  3595                           ; Regs used in _hardware_set_half_power: [wreg+status,2+status,0]
  3596  02D1  0829               	movf	_pwm_enabled,w
  3597  02D2  1903               	btfsc	3,2
  3598  02D3  0008               	return
  3599                           
  3600                           ;heat.c: 52: if (pwm_value >= 10)
  3601  02D4  300A               	movlw	10
  3602  02D5  0227               	subwf	hardware_set_half_power@pwm_value,w
  3603  02D6  1803               	btfsc	3,0
  3604                           
  3605                           ;heat.c: 53: {
  3606                           ;heat.c: 54: pwm_value = 0;
  3607  02D7  01A7               	clrf	hardware_set_half_power@pwm_value
  3608                           
  3609                           ;heat.c: 55: }
  3610                           ;heat.c: 58: if (pwm_value < 5)
  3611  02D8  3005               	movlw	5
  3612  02D9  0227               	subwf	hardware_set_half_power@pwm_value,w
  3613  02DA  1803               	btfsc	3,0
  3614  02DB  2ADE               	goto	i1l470
  3615                           
  3616                           ;heat.c: 59: {
  3617                           ;heat.c: 60: PORTB0 = 1;
  3618  02DC  1406               	bsf	6,0	;volatile
  3619                           
  3620                           ;heat.c: 61: }
  3621  02DD  2ADF               	goto	i1l4327
  3622  02DE                     i1l470:	
  3623                           
  3624                           ;heat.c: 62: else
  3625                           ;heat.c: 63: {
  3626                           ;heat.c: 64: PORTB0 = 0;
  3627  02DE  1006               	bcf	6,0	;volatile
  3628  02DF                     i1l4327:	
  3629                           
  3630                           ;heat.c: 65: }
  3631                           ;heat.c: 67: pwm_value++;
  3632  02DF  0AA7               	incf	hardware_set_half_power@pwm_value,f
  3633  02E0  0008               	return
  3634  02E1                     __end_of_hardware_set_half_power:	
  3635                           
  3636                           	psect	text36
  3637  01C9                     __ptext36:	
  3638  01C9                     _System_TimerHandler:	
  3639 ;; *************** function _System_TimerHandler *****************
  3640 ;; Defined at:
  3641 ;;		line 129 in file "main.c"
  3642 ;; Parameters:    Size  Location     Type
  3643 ;;		None
  3644 ;; Auto vars:     Size  Location     Type
  3645 ;;		None
  3646 ;; Return value:  Size  Location     Type
  3647 ;;                  1    wreg      void 
  3648 ;; Registers used:
  3649 ;;		wreg, status,2, status,0, pclath, cstack
  3650 ;; Tracked objects:
  3651 ;;		On entry : 100/0
  3652 ;;		On exit  : 100/0
  3653 ;;		Unchanged: 0/0
  3654 ;; Data sizes:     COMMON   BANK0  BANK1h  BANK1l
  3655 ;;      Params:         0       0       0       0
  3656 ;;      Locals:         0       0       0       0
  3657 ;;      Temps:          0       0       0       0
  3658 ;;      Totals:         0       0       0       0
  3659 ;;Total ram usage:        0 bytes
  3660 ;; Hardware stack levels used:    1
  3661 ;; Hardware stack levels required when called:    3
  3662 ;; This function calls:
  3663 ;;		i1_Heat_Stop
  3664 ;;		i1_Motor_Stop
  3665 ;; This function is called by:
  3666 ;;		_Timer0_Isr
  3667 ;; This function uses a non-reentrant model
  3668 ;;
  3669                           ;psect for function _System_TimerHandler
  3670                           
  3671                           
  3672                           ;main.c: 131: if (sys_state == SYSTEM_ON)
  3673                           ;incstack = 0
  3674 ;; hardware stack exceeded
  3675                           ; Regs used in _System_TimerHandler: [wreg+status,2+status,0+pclath+cstack]
  3676  01C9  0B21               	decfsz	_sys_state,w
  3677  01CA  0008               	return
  3678                           
  3679                           ;main.c: 132: {
  3680                           ;main.c: 133: i++;
  3681  01CB  0A9C               	incf	System_TimerHandler@i,f
  3682  01CC  1903               	btfsc	3,2
  3683  01CD  0A9D               	incf	System_TimerHandler@i+1,f
  3684                           
  3685                           ;main.c: 135: if (i>=1000)
  3686  01CE  3003               	movlw	3
  3687  01CF  021D               	subwf	System_TimerHandler@i+1,w
  3688  01D0  30E8               	movlw	232
  3689  01D1  1903               	btfsc	3,2
  3690  01D2  021C               	subwf	System_TimerHandler@i,w
  3691  01D3  1C03               	btfss	3,0
  3692  01D4  0008               	return
  3693                           
  3694                           ;main.c: 136: {
  3695                           ;main.c: 137: i=0;
  3696  01D5  019C               	clrf	System_TimerHandler@i
  3697  01D6  019D               	clrf	System_TimerHandler@i+1
  3698                           
  3699                           ;main.c: 138: if (shutdown_timer > 0)
  3700  01D7  0834               	movf	_shutdown_timer,w
  3701  01D8  0435               	iorwf	_shutdown_timer+1,w
  3702  01D9  1903               	btfsc	3,2
  3703  01DA  0008               	return
  3704                           
  3705                           ;main.c: 139: {
  3706                           ;main.c: 140: shutdown_timer--;
  3707  01DB  3001               	movlw	1
  3708  01DC  02B4               	subwf	_shutdown_timer,f
  3709  01DD  3000               	movlw	0
  3710  01DE  1C03               	btfss	3,0
  3711  01DF  03B5               	decf	_shutdown_timer+1,f
  3712  01E0  02B5               	subwf	_shutdown_timer+1,f
  3713                           
  3714                           ;main.c: 141: if (shutdown_timer == 0)
  3715  01E1  0834               	movf	_shutdown_timer,w
  3716  01E2  0435               	iorwf	_shutdown_timer+1,w
  3717  01E3  1D03               	btfss	3,2
  3718  01E4  0008               	return
  3719                           
  3720                           ;main.c: 142: {
  3721                           ;main.c: 144: sys_state = SYSTEM_OFF;
  3722  01E5  01A1               	clrf	_sys_state
  3723                           
  3724                           ;main.c: 145: Motor_Stop();
  3725  01E6  2395               	fcall	i1_Motor_Stop
  3726                           
  3727                           ;main.c: 146: Heat_Stop();
  3728  01E7  2363               	fcall	i1_Heat_Stop
  3729  01E8  0008               	return
  3730  01E9                     __end_of_System_TimerHandler:	
  3731                           
  3732                           	psect	text37
  3733  0363                     __ptext37:	
  3734  0363                     i1_Heat_Stop:	
  3735 ;; *************** function i1_Heat_Stop *****************
  3736 ;; Defined at:
  3737 ;;		line 102 in file "heat.c"
  3738 ;; Parameters:    Size  Location     Type
  3739 ;;		None
  3740 ;; Auto vars:     Size  Location     Type
  3741 ;;		None
  3742 ;; Return value:  Size  Location     Type
  3743 ;;                  1    wreg      void 
  3744 ;; Registers used:
  3745 ;;		wreg, status,2, status,0, pclath, cstack
  3746 ;; Tracked objects:
  3747 ;;		On entry : 100/0
  3748 ;;		On exit  : 100/0
  3749 ;;		Unchanged: 0/0
  3750 ;; Data sizes:     COMMON   BANK0  BANK1h  BANK1l
  3751 ;;      Params:         0       0       0       0
  3752 ;;      Locals:         0       0       0       0
  3753 ;;      Temps:          0       0       0       0
  3754 ;;      Totals:         0       0       0       0
  3755 ;;Total ram usage:        0 bytes
  3756 ;; Hardware stack levels used:    1
  3757 ;; Hardware stack levels required when called:    1
  3758 ;; This function calls:
  3759 ;;		i1_hardware_pwm_control
  3760 ;;		i1_hardware_stop_heat
  3761 ;; This function is called by:
  3762 ;;		_System_TimerHandler
  3763 ;; This function uses a non-reentrant model
  3764 ;;
  3765                           ;psect for function i1_Heat_Stop
  3766                           
  3767                           
  3768                           ;heat.c: 104: hardware_stop_heat();
  3769                           ;incstack = 0
  3770                           ; Regs used in i1_Heat_Stop: [wreg+status,2+status,0+pclath+cstack]
  3771  0363  238E               	fcall	i1_hardware_stop_heat
  3772                           
  3773                           ;heat.c: 105: hardware_pwm_control(0);
  3774  0364  3000               	movlw	0
  3775  0365  2358               	fcall	i1_hardware_pwm_control
  3776                           
  3777                           ;heat.c: 106: current_heat_mode = HEAT_MODE_OFF;
  3778  0366  01A8               	clrf	_current_heat_mode
  3779  0367  0008               	return
  3780  0368                     __end_ofi1_Heat_Stop:	
  3781                           
  3782                           	psect	text38
  3783  038E                     __ptext38:	
  3784  038E                     i1_hardware_stop_heat:	
  3785 ;; *************** function i1_hardware_stop_heat *****************
  3786 ;; Defined at:
  3787 ;;		line 73 in file "heat.c"
  3788 ;; Parameters:    Size  Location     Type
  3789 ;;		None
  3790 ;; Auto vars:     Size  Location     Type
  3791 ;;		None
  3792 ;; Return value:  Size  Location     Type
  3793 ;;                  1    wreg      void 
  3794 ;; Registers used:
  3795 ;;		status,2
  3796 ;; Tracked objects:
  3797 ;;		On entry : 100/0
  3798 ;;		On exit  : 100/0
  3799 ;;		Unchanged: 0/0
  3800 ;; Data sizes:     COMMON   BANK0  BANK1h  BANK1l
  3801 ;;      Params:         0       0       0       0
  3802 ;;      Locals:         0       0       0       0
  3803 ;;      Temps:          0       0       0       0
  3804 ;;      Totals:         0       0       0       0
  3805 ;;Total ram usage:        0 bytes
  3806 ;; Hardware stack levels used:    1
  3807 ;; This function calls:
  3808 ;;		Nothing
  3809 ;; This function is called by:
  3810 ;;		i1_Heat_Stop
  3811 ;; This function uses a non-reentrant model
  3812 ;;
  3813                           ;psect for function i1_hardware_stop_heat
  3814                           
  3815                           
  3816                           ;heat.c: 75: TRISB=0X00;
  3817                           ;incstack = 0
  3818                           ; Regs used in i1_hardware_stop_heat: [status,2]
  3819  038E  01C6               	clrf	70	;volatile
  3820                           
  3821                           ;heat.c: 76: PORTB0 = 0;
  3822  038F  1006               	bcf	6,0	;volatile
  3823  0390  0008               	return
  3824  0391                     __end_ofi1_hardware_stop_heat:	
  3825                           
  3826                           	psect	text39
  3827  0358                     __ptext39:	
  3828  0358                     i1_hardware_pwm_control:	
  3829 ;; *************** function i1_hardware_pwm_control *****************
  3830 ;; Defined at:
  3831 ;;		line 34 in file "heat.c"
  3832 ;; Parameters:    Size  Location     Type
  3833 ;;  enable          1    wreg     unsigned char 
  3834 ;; Auto vars:     Size  Location     Type
  3835 ;;  enable          1    0[BANK0 ] unsigned char 
  3836 ;; Return value:  Size  Location     Type
  3837 ;;                  1    wreg      void 
  3838 ;; Registers used:
  3839 ;;		wreg, status,2, status,0
  3840 ;; Tracked objects:
  3841 ;;		On entry : 100/0
  3842 ;;		On exit  : 100/0
  3843 ;;		Unchanged: 0/0
  3844 ;; Data sizes:     COMMON   BANK0  BANK1h  BANK1l
  3845 ;;      Params:         0       0       0       0
  3846 ;;      Locals:         0       1       0       0
  3847 ;;      Temps:          0       0       0       0
  3848 ;;      Totals:         0       1       0       0
  3849 ;;Total ram usage:        1 bytes
  3850 ;; Hardware stack levels used:    1
  3851 ;; This function calls:
  3852 ;;		Nothing
  3853 ;; This function is called by:
  3854 ;;		i1_Heat_Stop
  3855 ;; This function uses a non-reentrant model
  3856 ;;
  3857                           ;psect for function i1_hardware_pwm_control
  3858                           
  3859                           
  3860                           ;incstack = 0
  3861                           ; Regs used in i1_hardware_pwm_control: [wreg+status,2+status,0]
  3862                           ;i1hardware_pwm_control@enable stored from wreg
  3863  0358  00AA               	movwf	i1hardware_pwm_control@enable
  3864                           
  3865                           ;heat.c: 36: pwm_enabled = enable;
  3866  0359  00A9               	movwf	_pwm_enabled
  3867                           
  3868                           ;heat.c: 37: if (!enable)
  3869  035A  082A               	movf	i1hardware_pwm_control@enable,w
  3870  035B  1903               	btfsc	3,2
  3871                           
  3872                           ;heat.c: 38: {
  3873                           ;heat.c: 39: PORTB0 = 0;
  3874  035C  1006               	bcf	6,0	;volatile
  3875  035D  0008               	return
  3876  035E                     __end_ofi1_hardware_pwm_control:	
  3877                           
  3878                           	psect	text40
  3879  0079                     __ptext40:	
  3880  0079                     _Motor_Process:	
  3881 ;; *************** function _Motor_Process *****************
  3882 ;; Defined at:
  3883 ;;		line 207 in file "motor1.c"
  3884 ;; Parameters:    Size  Location     Type
  3885 ;;		None
  3886 ;; Auto vars:     Size  Location     Type
  3887 ;;		None
  3888 ;; Return value:  Size  Location     Type
  3889 ;;                  1    wreg      void 
  3890 ;; Registers used:
  3891 ;;		wreg, fsr0l, fsr0h, status,2, status,0, pclath, cstack
  3892 ;; Tracked objects:
  3893 ;;		On entry : 100/0
  3894 ;;		On exit  : 100/0
  3895 ;;		Unchanged: 0/0
  3896 ;; Data sizes:     COMMON   BANK0  BANK1h  BANK1l
  3897 ;;      Params:         0       0       0       0
  3898 ;;      Locals:         0       0       0       0
  3899 ;;      Temps:          0       0       0       0
  3900 ;;      Totals:         0       0       0       0
  3901 ;;Total ram usage:        0 bytes
  3902 ;; Hardware stack levels used:    1
  3903 ;; Hardware stack levels required when called:    4
  3904 ;; This function calls:
  3905 ;;		_System_GetState
  3906 ;;		i1_Motor_Start
  3907 ;;		i1_Motor_Stop
  3908 ;;		i1_Motor_ToggleDirection
  3909 ;; This function is called by:
  3910 ;;		_Timer0_Isr
  3911 ;; This function uses a non-reentrant model
  3912 ;;
  3913                           ;psect for function _Motor_Process
  3914                           
  3915                           
  3916                           ;motor1.c: 210: if (System_GetState() != SYSTEM_ON) return;
  3917                           ;incstack = 0
  3918 ;; hardware stack exceeded
  3919                           ; Regs used in _Motor_Process: [wreg-fsr0h+status,2+status,0+pclath+cstack]
  3920  0079  2397               	fcall	_System_GetState
  3921  007A  3A01               	xorlw	1
  3922  007B  1D03               	btfss	3,2
  3923  007C  0008               	return
  3924                           
  3925                           ;motor1.c: 213: if (mode_params.auto_dir_switch && mode_params.dir_switch_interval > 0)
  3926  007D  0814               	movf	_mode_params+4,w
  3927  007E  1903               	btfsc	3,2
  3928  007F  288F               	goto	i1l4497
  3929  0080  0815               	movf	_mode_params+5,w
  3930  0081  0416               	iorwf	_mode_params+6,w
  3931  0082  1903               	btfsc	3,2
  3932  0083  288F               	goto	i1l4497
  3933                           
  3934                           ;motor1.c: 214: {
  3935                           ;motor1.c: 215: if (mode_runtime.dir_switch_timer < 65535)
  3936  0084  0F1A               	incfsz	_mode_runtime+3,w
  3937  0085  2889               	goto	i1l4493
  3938  0086  0A1B               	incf	_mode_runtime+4,w
  3939  0087  1903               	btfsc	3,2
  3940  0088  288D               	goto	i1l4495
  3941  0089                     i1l4493:	
  3942                           
  3943                           ;motor1.c: 216: {
  3944                           ;motor1.c: 217: mode_runtime.dir_switch_timer++;
  3945  0089  0A9A               	incf	_mode_runtime+3,f
  3946  008A  1903               	btfsc	3,2
  3947  008B  0A9B               	incf	_mode_runtime+4,f
  3948                           
  3949                           ;motor1.c: 218: }
  3950  008C  288F               	goto	i1l4497
  3951  008D                     i1l4495:	
  3952                           
  3953                           ;motor1.c: 219: else
  3954                           ;motor1.c: 220: {
  3955                           ;motor1.c: 221: mode_runtime.dir_switch_timer = 0;
  3956  008D  019A               	clrf	_mode_runtime+3
  3957  008E  019B               	clrf	_mode_runtime+4
  3958  008F                     i1l4497:	
  3959                           
  3960                           ;motor1.c: 222: }
  3961                           ;motor1.c: 223: }
  3962                           ;motor1.c: 226: if (mode_runtime.state == MODE_STATE_RUNNING)
  3963  008F  0817               	movf	_mode_runtime,w
  3964  0090  1D03               	btfss	3,2
  3965  0091  28A8               	goto	i1l4517
  3966                           
  3967                           ;motor1.c: 227: {
  3968                           ;motor1.c: 229: if (mode_runtime.timer >= mode_params.work_duration)
  3969  0092  0811               	movf	_mode_params+1,w
  3970  0093  0219               	subwf	_mode_runtime+2,w
  3971  0094  1D03               	btfss	3,2
  3972  0095  2898               	goto	u126_25
  3973  0096  0810               	movf	_mode_params,w
  3974  0097  0218               	subwf	_mode_runtime+1,w
  3975  0098                     u126_25:	
  3976  0098  1C03               	btfss	3,0
  3977  0099  28B5               	goto	i1l4525
  3978                           
  3979                           ;motor1.c: 230: {
  3980                           ;motor1.c: 231: Motor_Stop();
  3981  009A  2395               	fcall	i1_Motor_Stop
  3982  009B  3002               	movlw	2
  3983                           
  3984                           ;motor1.c: 232: mode_runtime.state = MODE_STATE_STOPPED;
  3985  009C  0197               	clrf	_mode_runtime
  3986  009D  0A97               	incf	_mode_runtime,f
  3987                           
  3988                           ;motor1.c: 233: mode_runtime.timer = 0;
  3989  009E  0198               	clrf	_mode_runtime+1
  3990  009F  0199               	clrf	_mode_runtime+2
  3991                           
  3992                           ;motor1.c: 236: if (current_mode == MODE_B && mode_params.auto_dir_switch)
  3993  00A0  061F               	xorwf	_current_mode,w
  3994  00A1  1D03               	btfss	3,2
  3995  00A2  28BD               	goto	i1l4529
  3996  00A3  0814               	movf	_mode_params+4,w
  3997  00A4  1903               	btfsc	3,2
  3998  00A5  28BD               	goto	i1l4529
  3999                           
  4000                           ;motor1.c: 237: {
  4001                           ;motor1.c: 238: Motor_ToggleDirection();
  4002  00A6  232C               	fcall	i1_Motor_ToggleDirection
  4003  00A7  28B4               	goto	L11
  4004  00A8                     i1l4517:	
  4005                           
  4006                           ;motor1.c: 241: else
  4007                           ;motor1.c: 242: {
  4008                           ;motor1.c: 243: if (mode_runtime.timer < 65535)
  4009                           ;motor1.c: 249: else
  4010                           ;motor1.c: 250: {
  4011                           ;motor1.c: 252: if (mode_runtime.timer >= mode_params.stop_duration)
  4012  00A8  0813               	movf	_mode_params+3,w
  4013  00A9  0219               	subwf	_mode_runtime+2,w
  4014  00AA  1D03               	btfss	3,2
  4015  00AB  28AE               	goto	u130_25
  4016  00AC  0812               	movf	_mode_params+2,w
  4017  00AD  0218               	subwf	_mode_runtime+1,w
  4018  00AE                     u130_25:	
  4019  00AE  1C03               	btfss	3,0
  4020  00AF  28B5               	goto	i1l4525
  4021                           
  4022                           ;motor1.c: 253: {
  4023                           ;motor1.c: 254: Motor_Start();
  4024  00B0  236D               	fcall	i1_Motor_Start
  4025                           
  4026                           ;motor1.c: 255: mode_runtime.state = MODE_STATE_RUNNING;
  4027  00B1  0197               	clrf	_mode_runtime
  4028                           
  4029                           ;motor1.c: 256: mode_runtime.timer = 0;
  4030  00B2  0198               	clrf	_mode_runtime+1
  4031  00B3  0199               	clrf	_mode_runtime+2
  4032  00B4                     L11:	
  4033                           
  4034                           ;motor1.c: 257: }
  4035  00B4  28BD               	goto	i1l4529
  4036  00B5                     i1l4525:	
  4037                           
  4038                           ;motor1.c: 258: else
  4039                           ;motor1.c: 259: {
  4040                           ;motor1.c: 260: if (mode_runtime.timer < 65535)
  4041  00B5  0F18               	incfsz	_mode_runtime+1,w
  4042  00B6  28BA               	goto	i1l4515
  4043  00B7  0A19               	incf	_mode_runtime+2,w
  4044  00B8  1903               	btfsc	3,2
  4045  00B9  28BD               	goto	i1l4529
  4046  00BA                     i1l4515:	
  4047                           
  4048                           ;motor1.c: 244: {
  4049                           ;motor1.c: 245: mode_runtime.timer++;
  4050  00BA  0A98               	incf	_mode_runtime+1,f
  4051  00BB  1903               	btfsc	3,2
  4052  00BC  0A99               	incf	_mode_runtime+2,f
  4053  00BD                     i1l4529:	
  4054                           
  4055                           ;motor1.c: 263: }
  4056                           ;motor1.c: 264: }
  4057                           ;motor1.c: 265: }
  4058                           ;motor1.c: 268: if (mode_params.auto_dir_switch &&
  4059                           ;motor1.c: 269: mode_params.dir_switch_interval > 0 &&
  4060                           ;motor1.c: 270: mode_runtime.dir_switch_timer >= mode_params.dir_switch_interval)
  4061  00BD  0814               	movf	_mode_params+4,w
  4062  00BE  1903               	btfsc	3,2
  4063  00BF  0008               	return
  4064  00C0  0815               	movf	_mode_params+5,w
  4065  00C1  0416               	iorwf	_mode_params+6,w
  4066  00C2  1903               	btfsc	3,2
  4067  00C3  0008               	return
  4068  00C4  0816               	movf	_mode_params+6,w
  4069  00C5  021B               	subwf	_mode_runtime+4,w
  4070  00C6  1D03               	btfss	3,2
  4071  00C7  28CA               	goto	u134_25
  4072  00C8  0815               	movf	_mode_params+5,w
  4073  00C9  021A               	subwf	_mode_runtime+3,w
  4074  00CA                     u134_25:	
  4075  00CA  1C03               	btfss	3,0
  4076  00CB  0008               	return
  4077                           
  4078                           ;motor1.c: 271: {
  4079                           ;motor1.c: 272: Motor_ToggleDirection();
  4080  00CC  232C               	fcall	i1_Motor_ToggleDirection
  4081                           
  4082                           ;motor1.c: 273: mode_runtime.dir_switch_timer = 0;
  4083  00CD  019A               	clrf	_mode_runtime+3
  4084  00CE  019B               	clrf	_mode_runtime+4
  4085                           
  4086                           ;motor1.c: 274: Motor_Start();
  4087  00CF  236D               	fcall	i1_Motor_Start
  4088  00D0  0008               	return
  4089  00D1                     __end_of_Motor_Process:	
  4090                           
  4091                           	psect	text41
  4092  032C                     __ptext41:	
  4093  032C                     i1_Motor_ToggleDirection:	
  4094 ;; *************** function i1_Motor_ToggleDirection *****************
  4095 ;; Defined at:
  4096 ;;		line 102 in file "motor1.c"
  4097 ;; Parameters:    Size  Location     Type
  4098 ;;		None
  4099 ;; Auto vars:     Size  Location     Type
  4100 ;;		None
  4101 ;; Return value:  Size  Location     Type
  4102 ;;                  1    wreg      void 
  4103 ;; Registers used:
  4104 ;;		wreg, status,2, status,0, pclath, cstack
  4105 ;; Tracked objects:
  4106 ;;		On entry : 100/0
  4107 ;;		On exit  : 100/0
  4108 ;;		Unchanged: 0/0
  4109 ;; Data sizes:     COMMON   BANK0  BANK1h  BANK1l
  4110 ;;      Params:         0       0       0       0
  4111 ;;      Locals:         0       0       0       0
  4112 ;;      Temps:          0       0       0       0
  4113 ;;      Totals:         0       0       0       0
  4114 ;;Total ram usage:        0 bytes
  4115 ;; Hardware stack levels used:    1
  4116 ;; Hardware stack levels required when called:    3
  4117 ;; This function calls:
  4118 ;;		i1_Motor_Stop
  4119 ;; This function is called by:
  4120 ;;		_Motor_Process
  4121 ;; This function uses a non-reentrant model
  4122 ;;
  4123                           ;psect for function i1_Motor_ToggleDirection
  4124                           
  4125                           
  4126                           ;motor1.c: 104: Motor_Stop();
  4127                           ;incstack = 0
  4128 ;; hardware stack exceeded
  4129                           ; Regs used in i1_Motor_ToggleDirection: [wreg+status,2+status,0+pclath+cstack]
  4130  032C  2395               	fcall	i1_Motor_Stop
  4131                           
  4132                           ;motor1.c: 107: current_dir = (current_dir == DIRECTION_FORWARD) ?
  4133                           ;motor1.c: 108: DIRECTION_REVERSE : DIRECTION_FORWARD;
  4134  032D  0820               	movf	_current_dir,w
  4135  032E  1D03               	btfss	3,2
  4136  032F  2B32               	goto	u97_20
  4137  0330  3001               	movlw	1
  4138  0331  2B33               	goto	u98_20
  4139  0332                     u97_20:	
  4140  0332  3000               	movlw	0
  4141  0333                     u98_20:	
  4142  0333  00A0               	movwf	_current_dir
  4143  0334  0008               	return
  4144  0335                     __end_ofi1_Motor_ToggleDirection:	
  4145                           
  4146                           	psect	text42
  4147  0395                     __ptext42:	
  4148  0395                     i1_Motor_Stop:	
  4149 ;; *************** function i1_Motor_Stop *****************
  4150 ;; Defined at:
  4151 ;;		line 93 in file "motor1.c"
  4152 ;; Parameters:    Size  Location     Type
  4153 ;;		None
  4154 ;; Auto vars:     Size  Location     Type
  4155 ;;		None
  4156 ;; Return value:  Size  Location     Type
  4157 ;;                  1    wreg      void 
  4158 ;; Registers used:
  4159 ;;		wreg, status,2, status,0, pclath, cstack
  4160 ;; Tracked objects:
  4161 ;;		On entry : 100/0
  4162 ;;		On exit  : 100/0
  4163 ;;		Unchanged: 0/0
  4164 ;; Data sizes:     COMMON   BANK0  BANK1h  BANK1l
  4165 ;;      Params:         0       0       0       0
  4166 ;;      Locals:         0       0       0       0
  4167 ;;      Temps:          0       0       0       0
  4168 ;;      Totals:         0       0       0       0
  4169 ;;Total ram usage:        0 bytes
  4170 ;; Hardware stack levels used:    1
  4171 ;; Hardware stack levels required when called:    2
  4172 ;; This function calls:
  4173 ;;		i1_hardware_stop_motor
  4174 ;; This function is called by:
  4175 ;;		_System_TimerHandler
  4176 ;;		_Motor_Process
  4177 ;;		i1_Motor_ToggleDirection
  4178 ;; This function uses a non-reentrant model
  4179 ;;
  4180                           ;psect for function i1_Motor_Stop
  4181                           
  4182                           
  4183                           ;motor1.c: 95: hardware_stop_motor();
  4184                           ;incstack = 0
  4185 ;; hardware stack exceeded
  4186                           ; Regs used in i1_Motor_Stop: [wreg+status,2+status,0+pclath+cstack]
  4187  0395  2368               	fcall	i1_hardware_stop_motor
  4188  0396  0008               	return
  4189  0397                     __end_ofi1_Motor_Stop:	
  4190                           
  4191                           	psect	text43
  4192  0368                     __ptext43:	
  4193  0368                     i1_hardware_stop_motor:	
  4194 ;; *************** function i1_hardware_stop_motor *****************
  4195 ;; Defined at:
  4196 ;;		line 29 in file "motor1.c"
  4197 ;; Parameters:    Size  Location     Type
  4198 ;;		None
  4199 ;; Auto vars:     Size  Location     Type
  4200 ;;		None
  4201 ;; Return value:  Size  Location     Type
  4202 ;;                  1    wreg      void 
  4203 ;; Registers used:
  4204 ;;		wreg, status,2, status,0, pclath, cstack
  4205 ;; Tracked objects:
  4206 ;;		On entry : 100/0
  4207 ;;		On exit  : 100/0
  4208 ;;		Unchanged: 0/0
  4209 ;; Data sizes:     COMMON   BANK0  BANK1h  BANK1l
  4210 ;;      Params:         0       0       0       0
  4211 ;;      Locals:         0       0       0       0
  4212 ;;      Temps:          0       0       0       0
  4213 ;;      Totals:         0       0       0       0
  4214 ;;Total ram usage:        0 bytes
  4215 ;; Hardware stack levels used:    1
  4216 ;; Hardware stack levels required when called:    1
  4217 ;; This function calls:
  4218 ;;		i1_nPWM1
  4219 ;;		i1_nPWM2
  4220 ;; This function is called by:
  4221 ;;		i1_Motor_Stop
  4222 ;; This function uses a non-reentrant model
  4223 ;;
  4224                           ;psect for function i1_hardware_stop_motor
  4225                           
  4226                           
  4227                           ;motor1.c: 31: nPWM1(0X00);
  4228                           ;incstack = 0
  4229 ;; hardware stack exceeded
  4230                           ; Regs used in i1_hardware_stop_motor: [wreg+status,2+status,0+pclath+cstack]
  4231  0368  3000               	movlw	0
  4232  0369  22B0               	fcall	i1_nPWM1
  4233                           
  4234                           ;motor1.c: 32: nPWM2(0X00);
  4235  036A  3000               	movlw	0
  4236  036B  229F               	fcall	i1_nPWM2
  4237  036C  0008               	return
  4238  036D                     __end_ofi1_hardware_stop_motor:	
  4239                           
  4240                           	psect	text44
  4241  036D                     __ptext44:	
  4242  036D                     i1_Motor_Start:	
  4243 ;; *************** function i1_Motor_Start *****************
  4244 ;; Defined at:
  4245 ;;		line 84 in file "motor1.c"
  4246 ;; Parameters:    Size  Location     Type
  4247 ;;		None
  4248 ;; Auto vars:     Size  Location     Type
  4249 ;;		None
  4250 ;; Return value:  Size  Location     Type
  4251 ;;                  1    wreg      void 
  4252 ;; Registers used:
  4253 ;;		wreg, fsr0l, fsr0h, status,2, status,0, pclath, cstack
  4254 ;; Tracked objects:
  4255 ;;		On entry : 100/0
  4256 ;;		On exit  : 100/0
  4257 ;;		Unchanged: 0/0
  4258 ;; Data sizes:     COMMON   BANK0  BANK1h  BANK1l
  4259 ;;      Params:         0       0       0       0
  4260 ;;      Locals:         0       0       0       0
  4261 ;;      Temps:          0       0       0       0
  4262 ;;      Totals:         0       0       0       0
  4263 ;;Total ram usage:        0 bytes
  4264 ;; Hardware stack levels used:    1
  4265 ;; Hardware stack levels required when called:    2
  4266 ;; This function calls:
  4267 ;;		i1_hardware_set_motor
  4268 ;; This function is called by:
  4269 ;;		_Motor_Process
  4270 ;; This function uses a non-reentrant model
  4271 ;;
  4272                           ;psect for function i1_Motor_Start
  4273                           
  4274                           
  4275                           ;motor1.c: 86: hardware_set_motor(current_dir, current_speed);
  4276                           ;incstack = 0
  4277 ;; hardware stack exceeded
  4278                           ; Regs used in i1_Motor_Start: [wreg-fsr0h+status,2+status,0+pclath+cstack]
  4279  036D  081E               	movf	_current_speed,w
  4280  036E  00AB               	movwf	i1hardware_set_motor@speed
  4281  036F  0820               	movf	_current_dir,w
  4282  0370  2208               	fcall	i1_hardware_set_motor
  4283  0371  0008               	return
  4284  0372                     __end_ofi1_Motor_Start:	
  4285                           
  4286                           	psect	text45
  4287  0208                     __ptext45:	
  4288  0208                     i1_hardware_set_motor:	
  4289 ;; *************** function i1_hardware_set_motor *****************
  4290 ;; Defined at:
  4291 ;;		line 41 in file "motor1.c"
  4292 ;; Parameters:    Size  Location     Type
  4293 ;;  dir             1    wreg     enum E491
  4294 ;;  speed           1    1[BANK0 ] enum E501
  4295 ;; Auto vars:     Size  Location     Type
  4296 ;;  dir             1    2[BANK0 ] enum E491
  4297 ;; Return value:  Size  Location     Type
  4298 ;;                  1    wreg      void 
  4299 ;; Registers used:
  4300 ;;		wreg, fsr0l, fsr0h, status,2, status,0, pclath, cstack
  4301 ;; Tracked objects:
  4302 ;;		On entry : 100/0
  4303 ;;		On exit  : 100/0
  4304 ;;		Unchanged: 0/0
  4305 ;; Data sizes:     COMMON   BANK0  BANK1h  BANK1l
  4306 ;;      Params:         0       1       0       0
  4307 ;;      Locals:         0       1       0       0
  4308 ;;      Temps:          0       0       0       0
  4309 ;;      Totals:         0       2       0       0
  4310 ;;Total ram usage:        2 bytes
  4311 ;; Hardware stack levels used:    1
  4312 ;; Hardware stack levels required when called:    1
  4313 ;; This function calls:
  4314 ;;		i1_nPWM1
  4315 ;;		i1_nPWM2
  4316 ;; This function is called by:
  4317 ;;		i1_Motor_Start
  4318 ;; This function uses a non-reentrant model
  4319 ;;
  4320                           ;psect for function i1_hardware_set_motor
  4321                           
  4322                           
  4323                           ;incstack = 0
  4324 ;; hardware stack exceeded
  4325                           ; Regs used in i1_hardware_set_motor: [wreg-fsr0h+status,2+status,0+pclath+cstack]
  4326                           ;i1hardware_set_motor@dir stored from wreg
  4327  0208  00AC               	movwf	i1hardware_set_motor@dir
  4328                           
  4329                           ;motor1.c: 43: if (dir == DIRECTION_FORWARD)
  4330  0209  082C               	movf	i1hardware_set_motor@dir,w
  4331  020A  1D03               	btfss	3,2
  4332  020B  2A15               	goto	i1l4127
  4333                           
  4334                           ;motor1.c: 44: {
  4335                           ;motor1.c: 45: nPWM1(pwm_map[speed]);
  4336  020C  1003               	bcf	3,0
  4337  020D  0D2B               	rlf	i1hardware_set_motor@speed,w
  4338  020E  3E01               	addlw	low ((_pwm_map-__stringbase)| (0+32768))
  4339  020F  0084               	movwf	4
  4340  0210  2300               	fcall	stringdir
  4341  0211  22B0               	fcall	i1_nPWM1
  4342                           
  4343                           ;motor1.c: 46: nPWM2(0X00);
  4344  0212  3000               	movlw	0
  4345  0213  229F               	fcall	i1_nPWM2
  4346                           
  4347                           ;motor1.c: 47: }
  4348  0214  0008               	return
  4349  0215                     i1l4127:	
  4350                           
  4351                           ;motor1.c: 48: else
  4352                           ;motor1.c: 49: {
  4353                           ;motor1.c: 50: nPWM1(0X00);
  4354  0215  3000               	movlw	0
  4355  0216  22B0               	fcall	i1_nPWM1
  4356                           
  4357                           ;motor1.c: 51: nPWM2(pwm_map[speed]);
  4358  0217  1003               	bcf	3,0
  4359  0218  0D2B               	rlf	i1hardware_set_motor@speed,w
  4360  0219  3E01               	addlw	low ((_pwm_map-__stringbase)| (0+32768))
  4361  021A  0084               	movwf	4
  4362  021B  2300               	fcall	stringdir
  4363  021C  229F               	fcall	i1_nPWM2
  4364  021D  0008               	return
  4365  021E                     __end_ofi1_hardware_set_motor:	
  4366                           
  4367                           	psect	text46
  4368  029F                     __ptext46:	
  4369  029F                     i1_nPWM2:	
  4370 ;; *************** function i1_nPWM2 *****************
  4371 ;; Defined at:
  4372 ;;		line 38 in file "pwm.c"
  4373 ;; Parameters:    Size  Location     Type
  4374 ;;  m               1    wreg     unsigned char 
  4375 ;; Auto vars:     Size  Location     Type
  4376 ;;  m               1    0[BANK0 ] unsigned char 
  4377 ;; Return value:  Size  Location     Type
  4378 ;;                  1    wreg      void 
  4379 ;; Registers used:
  4380 ;;		wreg
  4381 ;; Tracked objects:
  4382 ;;		On entry : 100/0
  4383 ;;		On exit  : 100/0
  4384 ;;		Unchanged: 0/0
  4385 ;; Data sizes:     COMMON   BANK0  BANK1h  BANK1l
  4386 ;;      Params:         0       0       0       0
  4387 ;;      Locals:         0       1       0       0
  4388 ;;      Temps:          0       0       0       0
  4389 ;;      Totals:         0       1       0       0
  4390 ;;Total ram usage:        1 bytes
  4391 ;; Hardware stack levels used:    1
  4392 ;; This function calls:
  4393 ;;		Nothing
  4394 ;; This function is called by:
  4395 ;;		i1_hardware_stop_motor
  4396 ;;		i1_hardware_set_motor
  4397 ;; This function uses a non-reentrant model
  4398 ;;
  4399                           ;psect for function i1_nPWM2
  4400                           
  4401                           
  4402                           ;incstack = 0
  4403 ;; hardware stack exceeded
  4404                           ; Regs used in i1_nPWM2: [wreg]
  4405                           ;i1nPWM2@m stored from wreg
  4406  029F  00AA               	movwf	i1nPWM2@m
  4407                           
  4408                           ;pwm.c: 40: WDTEN = 0;
  4409  02A0  13C1               	bcf	65,7	;volatile
  4410                           
  4411                           ;pwm.c: 42: TMR2H = 0x40;
  4412  02A1  3040               	movlw	64
  4413  02A2  00D1               	movwf	81	;volatile
  4414                           
  4415                           ;pwm.c: 43: PWM1E = 1;
  4416  02A3  1750               	bsf	80,6	;volatile
  4417                           
  4418                           ;pwm.c: 44: T2 = 0x34;
  4419  02A4  3034               	movlw	52
  4420  02A5  00D2               	movwf	82	;volatile
  4421                           
  4422                           ;pwm.c: 45: T2LOAD = 0xF5;
  4423  02A6  30F5               	movlw	245
  4424  02A7  00D3               	movwf	83	;volatile
  4425                           
  4426                           ;pwm.c: 46: PWM1P = m;
  4427  02A8  082A               	movf	i1nPWM2@m,w
  4428  02A9  00D4               	movwf	84	;volatile
  4429                           
  4430                           ;pwm.c: 47: T2CON = 0x40;
  4431  02AA  3040               	movlw	64
  4432  02AB  00D0               	movwf	80	;volatile
  4433                           
  4434                           ;pwm.c: 48: T2IF = 0;
  4435  02AC  12CB               	bcf	75,5	;volatile
  4436                           
  4437                           ;pwm.c: 50: T2EN = 1;
  4438  02AD  17D0               	bsf	80,7	;volatile
  4439                           
  4440                           ;pwm.c: 51: T2IE = 1;
  4441  02AE  174B               	bsf	75,6	;volatile
  4442  02AF  0008               	return
  4443  02B0                     __end_ofi1_nPWM2:	
  4444                           
  4445                           	psect	text47
  4446  02B0                     __ptext47:	
  4447  02B0                     i1_nPWM1:	
  4448 ;; *************** function i1_nPWM1 *****************
  4449 ;; Defined at:
  4450 ;;		line 15 in file "pwm.c"
  4451 ;; Parameters:    Size  Location     Type
  4452 ;;  n               1    wreg     unsigned char 
  4453 ;; Auto vars:     Size  Location     Type
  4454 ;;  n               1    0[BANK0 ] unsigned char 
  4455 ;; Return value:  Size  Location     Type
  4456 ;;                  1    wreg      void 
  4457 ;; Registers used:
  4458 ;;		wreg
  4459 ;; Tracked objects:
  4460 ;;		On entry : 100/0
  4461 ;;		On exit  : 100/0
  4462 ;;		Unchanged: 0/0
  4463 ;; Data sizes:     COMMON   BANK0  BANK1h  BANK1l
  4464 ;;      Params:         0       0       0       0
  4465 ;;      Locals:         0       1       0       0
  4466 ;;      Temps:          0       0       0       0
  4467 ;;      Totals:         0       1       0       0
  4468 ;;Total ram usage:        1 bytes
  4469 ;; Hardware stack levels used:    1
  4470 ;; This function calls:
  4471 ;;		Nothing
  4472 ;; This function is called by:
  4473 ;;		i1_hardware_stop_motor
  4474 ;;		i1_hardware_set_motor
  4475 ;; This function uses a non-reentrant model
  4476 ;;
  4477                           ;psect for function i1_nPWM1
  4478                           
  4479                           
  4480                           ;incstack = 0
  4481 ;; hardware stack exceeded
  4482                           ; Regs used in i1_nPWM1: [wreg]
  4483                           ;i1nPWM1@n stored from wreg
  4484  02B0  00AA               	movwf	i1nPWM1@n
  4485                           
  4486                           ;pwm.c: 17: WDTEN = 0;
  4487  02B1  13C1               	bcf	65,7	;volatile
  4488                           
  4489                           ;pwm.c: 19: TMR2H = 0x40;
  4490  02B2  3040               	movlw	64
  4491  02B3  00D1               	movwf	81	;volatile
  4492                           
  4493                           ;pwm.c: 20: PWM0E = 1;
  4494  02B4  174C               	bsf	76,6	;volatile
  4495                           
  4496                           ;pwm.c: 21: T1 = 0x34;
  4497  02B5  3034               	movlw	52
  4498  02B6  00CD               	movwf	77	;volatile
  4499                           
  4500                           ;pwm.c: 22: T1LOAD = 0xF5;
  4501  02B7  30F5               	movlw	245
  4502  02B8  00CE               	movwf	78	;volatile
  4503                           
  4504                           ;pwm.c: 23: PWM0P = n;
  4505  02B9  082A               	movf	i1nPWM1@n,w
  4506  02BA  00CF               	movwf	79	;volatile
  4507                           
  4508                           ;pwm.c: 24: T1CON = 0x40;
  4509  02BB  3040               	movlw	64
  4510  02BC  00CC               	movwf	76	;volatile
  4511                           
  4512                           ;pwm.c: 25: T1IF = 0;
  4513  02BD  104B               	bcf	75,0	;volatile
  4514                           
  4515                           ;pwm.c: 27: T1EN = 1;
  4516  02BE  17CC               	bsf	76,7	;volatile
  4517                           
  4518                           ;pwm.c: 28: T1IE = 1;
  4519  02BF  14CB               	bsf	75,1	;volatile
  4520  02C0  0008               	return
  4521  02C1                     __end_ofi1_nPWM1:	
  4522                           
  4523                           	psect	text48
  4524  0397                     __ptext48:	
  4525  0397                     _System_GetState:	
  4526 ;; *************** function _System_GetState *****************
  4527 ;; Defined at:
  4528 ;;		line 124 in file "main.c"
  4529 ;; Parameters:    Size  Location     Type
  4530 ;;		None
  4531 ;; Auto vars:     Size  Location     Type
  4532 ;;		None
  4533 ;; Return value:  Size  Location     Type
  4534 ;;                  1    wreg      enum E3
  4535 ;; Registers used:
  4536 ;;		wreg
  4537 ;; Tracked objects:
  4538 ;;		On entry : 100/0
  4539 ;;		On exit  : 100/0
  4540 ;;		Unchanged: 0/0
  4541 ;; Data sizes:     COMMON   BANK0  BANK1h  BANK1l
  4542 ;;      Params:         0       0       0       0
  4543 ;;      Locals:         0       0       0       0
  4544 ;;      Temps:          0       0       0       0
  4545 ;;      Totals:         0       0       0       0
  4546 ;;Total ram usage:        0 bytes
  4547 ;; Hardware stack levels used:    1
  4548 ;; This function calls:
  4549 ;;		Nothing
  4550 ;; This function is called by:
  4551 ;;		_Motor_Process
  4552 ;; This function uses a non-reentrant model
  4553 ;;
  4554                           ;psect for function _System_GetState
  4555                           
  4556                           
  4557                           ;main.c: 125: return sys_state;
  4558                           ;incstack = 0
  4559                           ; Regs used in _System_GetState: [wreg]
  4560  0397  0821               	movf	_sys_state,w
  4561  0398  0008               	return
  4562  0399                     __end_of_System_GetState:	
  4563  003E                     btemp	set	62	;btemp
  4564  003E                     wtemp0	set	62
  4565                           
  4566                           	psect	pa_nodes0
  4567  0000                     SFR:	
  4568  0000                     Addresses:	
  4569                           ; Version 1.45
  4570                           ; Generated 16/11/2017 GMT
  4571                           ; 
  4572                           ; Copyright  2017, Microchip Technology Inc. and its subsidiaries ("Microchip")
  4573                           ; All rights reserved.
  4574                           ; 
  4575                           ; This software is developed by Microchip Technology Inc. and its subsidiaries ("Microch
      +                          ip").
  4576                           ; 
  4577                           ; Redistribution and use in source and binary forms, with or without modification, are
  4578                           ; permitted provided that the following conditions are met:
  4579                           ; 
  4580                           ;     1. Redistributions of source code must retain the above copyright notice, this lis
      +                          t of
  4581                           ;        conditions and the following disclaimer.
  4582                           ; 
  4583                           ;     2. Redistributions in binary form must reproduce the above copyright notice, this 
      +                          list
  4584                           ;        of conditions and the following disclaimer in the documentation and/or other
  4585                           ;        materials provided with the distribution.
  4586                           ; 
  4587                           ;     3. Microchip's name may not be used to endorse or promote products derived from th
      +                          is
  4588                           ;        software without specific prior written permission.
  4589                           ; 
  4590                           ; THIS SOFTWARE IS PROVIDED BY MICROCHIP "AS IS" AND ANY EXPRESS OR IMPLIED WARRANTIES,
  4591                           ; INCLUDING, BUT NOT LIMITED TO, THE IMPLIED WARRANTIES OF MERCHANTABILITY AND FITNESS F
      +                          OR
  4592                           ; PURPOSE ARE DISCLAIMED.  IN NO EVENT SHALL MICROCHIP BE LIABLE FOR ANY DIRECT, INDIREC
      +                          T,
  4593                           ; INCIDENTAL, SPECIAL, EXEMPLARY, OR CONSequENTIAL DAMAGES (INCLUDING BUT NOT LIMITED TO
  4594                           ; PROCUREMENT OF SUBSTITUTE GOODS OR SERVICES; LOSS OF USE, DATA OR PROFITS; OR BUSINESS
  4595                           ; INTERRUPTION) HOWSOEVER CAUSED AND ON ANY THEORY OF LIABILITY, WHETHER IN CONTRACT, ST
      +                          RICT
  4596                           ; LIABILITY, OR TORT (INCLUDING NEGLIGENCE OR OTHERWISE) ARISING IN ANY WAY OUT OF THE U
      +                          SE OF
  4597                           ; THIS SOFTWARE, EVEN IF ADVISED OF THE POSSIBILITY OF SUCH DAMAGE.
  4598                           ; 
  4599                           ; 
  4600                           ; Code-generator required, PIC16F887 Definitions
  4601                           ; 
  4602                           ; SFR Addresses
  4603                           


Data Sizes:
    Strings     0
    Constant    6
    Data        3
    BSS         26
    Persistent  0
    Stack       0

Auto Spaces:
    Space          Size  Autos    Used
    COMMON            0      0       0
    BANK0            46     10      39
    BANK1h           32      5       5
    BANK1l           46      0       0

Pointer List with Targets:

    None.

Critical Paths under _main in COMMON

    None.

Critical Paths under _Timer0_Isr in COMMON

    None.

Critical Paths under _main in BANK0

    _main->_DelayMs
    _Motor_ToggleSpeed->_hardware_set_motor
    _Motor_Start->_hardware_set_motor
    _hardware_set_motor->_nPWM1
    _hardware_set_motor->_nPWM2
    _Motor_Init->_Motor_SetMode
    _hardware_stop_motor->_nPWM1
    _hardware_stop_motor->_nPWM2
    _Heat_Toggle->_hardware_set_heat
    _Heat_Stop->_hardware_pwm_control
    _Heat_Start->_hardware_set_heat
    _HEAT_EnergySave->_hardware_set_heat
    _hardware_set_heat->_hardware_pwm_control
    _DelayMs->_DelayUs2x

Critical Paths under _Timer0_Isr in BANK0

    _key_scan->i1_DelayUs2x
    i1_Heat_Stop->i1_hardware_pwm_control
    i1_hardware_stop_motor->i1_nPWM1
    i1_hardware_stop_motor->i1_nPWM2
    i1_Motor_Start->i1_hardware_set_motor
    i1_hardware_set_motor->i1_nPWM1
    i1_hardware_set_motor->i1_nPWM2

Critical Paths under _main in BANK1h

    _Motor_ToggleSpeed->___awmod

Critical Paths under _Timer0_Isr in BANK1h

    None.

Critical Paths under _main in BANK1l

    None.

Critical Paths under _Timer0_Isr in BANK1l

    None.

Call Graph Tables:

 ---------------------------------------------------------------------------------
 (Depth) Function   	        Calls       Base Space   Used Autos Params    Refs
 ---------------------------------------------------------------------------------
 (0) _main                                                 1     1      0    2055
                                              4 BANK1h     1     1      0
                            _DelayMs
                    _HEAT_EnergySave
                          _Heat_Init
                         _Heat_Start
                          _Heat_Stop
                        _Heat_Toggle
                      _Motor_GetMode
                         _Motor_Init
                      _Motor_SetMode
                        _Motor_Start
                         _Motor_Stop
              _Motor_ToggleDirection
                  _Motor_ToggleSpeed
                      _T0_sysinitial
                             _inital
                         _ramInitial
 ---------------------------------------------------------------------------------
 (1) _ramInitial                                           0     0      0       0
 ---------------------------------------------------------------------------------
 (1) _inital                                               0     0      0       0
 ---------------------------------------------------------------------------------
 (1) _T0_sysinitial                                        0     0      0       0
 ---------------------------------------------------------------------------------
 (1) _Motor_ToggleSpeed                                    0     0      0     835
                            ___awmod
                 _hardware_set_motor
 ---------------------------------------------------------------------------------
 (2) ___awmod                                              6     2      4     572
                                              7 BANK0      2     2      0
                                              0 BANK1h     4     0      4
 ---------------------------------------------------------------------------------
 (1) _Motor_ToggleDirection                                0     0      0      62
                         _Motor_Stop
 ---------------------------------------------------------------------------------
 (2) _Motor_Stop                                           0     0      0      62
                _hardware_stop_motor
 ---------------------------------------------------------------------------------
 (1) _Motor_Start                                          0     0      0     263
                 _hardware_set_motor
 ---------------------------------------------------------------------------------
 (2) _hardware_set_motor                                   2     1      1     263
                                              8 BANK0      2     1      1
                              _nPWM1
                              _nPWM2
 ---------------------------------------------------------------------------------
 (1) _Motor_Init                                           0     0      0     124
                      _Motor_SetMode
                _hardware_stop_motor
 ---------------------------------------------------------------------------------
 (3) _hardware_stop_motor                                  0     0      0      62
                              _nPWM1
                              _nPWM2
 ---------------------------------------------------------------------------------
 (3) _nPWM2                                                1     1      0      31
                                              7 BANK0      1     1      0
 ---------------------------------------------------------------------------------
 (3) _nPWM1                                                1     1      0      31
                                              7 BANK0      1     1      0
 ---------------------------------------------------------------------------------
 (1) _Motor_SetMode                                        1     1      0      62
                                              7 BANK0      1     1      0
 ---------------------------------------------------------------------------------
 (1) _Motor_GetMode                                        0     0      0       0
 ---------------------------------------------------------------------------------
 (1) _Heat_Toggle                                          0     0      0     124
                       _Heat_SetMode
                  _hardware_set_heat
 ---------------------------------------------------------------------------------
 (1) _Heat_Stop                                            0     0      0      62
               _hardware_pwm_control
                 _hardware_stop_heat
 ---------------------------------------------------------------------------------
 (1) _Heat_Start                                           0     0      0      93
                  _hardware_set_heat
 ---------------------------------------------------------------------------------
 (1) _Heat_Init                                            0     0      0       0
 ---------------------------------------------------------------------------------
 (1) _HEAT_EnergySave                                      0     0      0     124
                       _Heat_SetMode
                  _hardware_set_heat
 ---------------------------------------------------------------------------------
 (2) _hardware_set_heat                                    1     1      0      93
                                              8 BANK0      1     1      0
               _hardware_pwm_control
                 _hardware_stop_heat
 ---------------------------------------------------------------------------------
 (3) _hardware_stop_heat                                   0     0      0       0
 ---------------------------------------------------------------------------------
 (3) _hardware_pwm_control                                 1     1      0      62
                                              7 BANK0      1     1      0
 ---------------------------------------------------------------------------------
 (2) _Heat_SetMode                                         1     1      0      31
                                              7 BANK0      1     1      0
 ---------------------------------------------------------------------------------
 (1) _DelayMs                                              2     0      2     170
                                              8 BANK0      2     0      2
                          _DelayUs2x
 ---------------------------------------------------------------------------------
 (2) _DelayUs2x                                            1     1      0      31
                                              7 BANK0      1     1      0
 ---------------------------------------------------------------------------------
 Estimated maximum stack depth 3
 ---------------------------------------------------------------------------------
 (Depth) Function   	        Calls       Base Space   Used Autos Params    Refs
 ---------------------------------------------------------------------------------
 (5) _Timer0_Isr                                           4     4      0     334
                                              3 BANK0      4     4      0
                      _Motor_Process
                _System_TimerHandler
            _hardware_set_half_power
                           _key_tick
 ---------------------------------------------------------------------------------
 (6) _key_tick                                             0     0      0      22
                           _key_scan
 ---------------------------------------------------------------------------------
 (7) _key_scan                                             0     0      0      22
             _keymode0_configuration
             _keymode1_configuration
             _keymode2_configuration
             _keymode3_configuration
                        i1_DelayUs2x
 ---------------------------------------------------------------------------------
 (8) i1_DelayUs2x                                          1     1      0      22
                                              0 BANK0      1     1      0
 ---------------------------------------------------------------------------------
 (8) _keymode3_configuration                               0     0      0       0
 ---------------------------------------------------------------------------------
 (8) _keymode2_configuration                               0     0      0       0
 ---------------------------------------------------------------------------------
 (8) _keymode1_configuration                               0     0      0       0
 ---------------------------------------------------------------------------------
 (8) _keymode0_configuration                               0     0      0       0
 ---------------------------------------------------------------------------------
 (6) _hardware_set_half_power                              0     0      0       0
 ---------------------------------------------------------------------------------
 (6) _System_TimerHandler                                  0     0      0      88
                        i1_Heat_Stop
                       i1_Motor_Stop
 ---------------------------------------------------------------------------------
 (7) i1_Heat_Stop                                          0     0      0      44
             i1_hardware_pwm_control
               i1_hardware_stop_heat
 ---------------------------------------------------------------------------------
 (8) i1_hardware_stop_heat                                 0     0      0       0
 ---------------------------------------------------------------------------------
 (8) i1_hardware_pwm_control                               1     1      0      44
                                              0 BANK0      1     1      0
 ---------------------------------------------------------------------------------
 (6) _Motor_Process                                        0     0      0     224
                    _System_GetState
                      i1_Motor_Start
                       i1_Motor_Stop
            i1_Motor_ToggleDirection
 ---------------------------------------------------------------------------------
 (7) i1_Motor_ToggleDirection                              0     0      0      44
                       i1_Motor_Stop
 ---------------------------------------------------------------------------------
 (7) i1_Motor_Stop                                         0     0      0      44
              i1_hardware_stop_motor
 ---------------------------------------------------------------------------------
 (8) i1_hardware_stop_motor                                0     0      0      44
                            i1_nPWM1
                            i1_nPWM2
 ---------------------------------------------------------------------------------
 (7) i1_Motor_Start                                        0     0      0     136
               i1_hardware_set_motor
 ---------------------------------------------------------------------------------
 (8) i1_hardware_set_motor                                 2     1      1     136
                                              1 BANK0      2     1      1
                            i1_nPWM1
                            i1_nPWM2
 ---------------------------------------------------------------------------------
 (9) i1_nPWM2                                              1     1      0      22
                                              0 BANK0      1     1      0
 ---------------------------------------------------------------------------------
 (9) i1_nPWM1                                              1     1      0      22
                                              0 BANK0      1     1      0
 ---------------------------------------------------------------------------------
 (7) _System_GetState                                      0     0      0       0
 ---------------------------------------------------------------------------------
 Estimated maximum stack depth 9
 ---------------------------------------------------------------------------------

 Call Graph Graphs:

 _main (ROOT)
   _DelayMs
     _DelayUs2x
   _HEAT_EnergySave
     _Heat_SetMode
     _hardware_set_heat
       _hardware_pwm_control
       _hardware_stop_heat
   _Heat_Init
   _Heat_Start
     _hardware_set_heat
       _hardware_pwm_control
       _hardware_stop_heat
   _Heat_Stop
     _hardware_pwm_control
     _hardware_stop_heat
   _Heat_Toggle
     _Heat_SetMode
     _hardware_set_heat
       _hardware_pwm_control
       _hardware_stop_heat
   _Motor_GetMode
   _Motor_Init
     _Motor_SetMode
     _hardware_stop_motor
       _nPWM1
       _nPWM2
   _Motor_SetMode
   _Motor_Start
     _hardware_set_motor
       _nPWM1
       _nPWM2
   _Motor_Stop
     _hardware_stop_motor
       _nPWM1
       _nPWM2
   _Motor_ToggleDirection
     _Motor_Stop
       _hardware_stop_motor
         _nPWM1
         _nPWM2
   _Motor_ToggleSpeed
     ___awmod
     _hardware_set_motor
       _nPWM1
       _nPWM2
   _T0_sysinitial
   _inital
   _ramInitial

 _Timer0_Isr (ROOT)
   _Motor_Process
     _System_GetState
     i1_Motor_Start
       i1_hardware_set_motor
         i1_nPWM1
         i1_nPWM2
     i1_Motor_Stop
       i1_hardware_stop_motor
         i1_nPWM1
         i1_nPWM2
     i1_Motor_ToggleDirection
       i1_Motor_Stop
         i1_hardware_stop_motor
           i1_nPWM1
           i1_nPWM2
   _System_TimerHandler
     i1_Heat_Stop
       i1_hardware_pwm_control
       i1_hardware_stop_heat
     i1_Motor_Stop
       i1_hardware_stop_motor
         i1_nPWM1
         i1_nPWM2
   _hardware_set_half_power
   _key_tick
     _key_scan
       _keymode0_configuration
       _keymode1_configuration
       _keymode2_configuration
       _keymode3_configuration
       i1_DelayUs2x

 Address spaces:
Name               Size   Autos  Total    Cost      Usage
BITCOMMON            0      0       0       0        0.0%
NULL                 0      0       0       0        0.0%
CODE                 0      0       0       0        0.0%
BITSFR0              0      0       0       1        0.0%
SFR0                 0      0       0       1        0.0%
COMMON               0      0       0       1        0.0%
BITSFR1              0      0       0       2        0.0%
SFR1                 0      0       0       2        0.0%
STACK                0      0       0       2        0.0%
BANK0               2E      A      27       3       84.8%
ABS                  0      0      2C       4        0.0%
BITBANK0            2E      0       0       5        0.0%
BITBANK1h           20      0       0       6        0.0%
BITBANK1l           2E      0       0       7        0.0%
BANK1h              20      5       5       8       15.6%
BANK1l              2E      0       0       9        0.0%
DATA                 0      0      2C      10        0.0%


Microchip Technology PIC Macro Assembler V1.45 build -152302408 
Symbol Table                                                                                   Wed Aug 20 09:39:03 2025

                 _Motor_ToggleSpeed 026C                                   L1 00EC  
                                 L2 0105                                   L3 010B  
                                 L4 0115                                   L5 0131  
                                 L6 0143                                   L7 024E  
                                 L9 0169                ??_hardware_stop_heat 0000  
                    ?i1_Motor_Start 002A                                  L11 00B4  
                                PL2 0154                  ?_Motor_ToggleSpeed 002A  
                                SFR 0000                                  _T0 0001  
                                _T1 004D                                  _T2 0052  
   __size_of_keymode2_configuration 0007               ??_hardware_stop_motor 0000  
    __end_ofi1_hardware_pwm_control 035E                                 _GIE 0077  
                               _BOR 025B                                 _FSR 0004  
                               _PS0 0208                                 _PS1 0209  
                               _PS2 020A                                 _SCS 0285  
                               _PSA 020B           i1hardware_set_motor@speed 002B  
                               _POR 025C                                 _key 0026  
               ??_Motor_ToggleSpeed 0000                        ___awmod@sign 0032  
               __end_of_Heat_Toggle 025B                                S5011 0005  
                              S5009 02FC               Motor_SetMode@new_mode 0031  
    __size_ofi1_hardware_stop_motor 0005                                l2513 0122  
                              l2514 0151                                l2515 012A  
                              l2516 0139                                l2517 013F  
     __end_ofi1_hardware_stop_motor 036D                                l4701 0376  
                              l4711 0230                                l4705 022A  
                              l1988 0042                                l4709 022E  
                              l4727 037B                                l4831 02E9  
                              l4743 0146                                l4905 0023  
                              l4819 0255                                l4755 023F  
                              l4771 00E6                                l4861 025D  
                              l4941 0048                                l4925 0035  
                              l4909 0027                                l4767 00DE  
                              l4919 0031                                _ADEN 02D0  
                              l4697 0388                                l4945 004C  
                              l4937 0044                                l4929 0039  
                              l4779 00F5                                l4877 02CC  
                              l4869 0265                                l4957 005A  
                              l4965 0064                                l4879 02C1  
                              l4967 0077                                _ADON 02D1  
                              _CHS0 02D2                                _CHS1 02D3  
                              _CHS2 02D4                                _CHS3 02D5  
                              _T0CK 025F                                _T0IE 0070  
                              _T0IF 0073                                _T0CS 020D  
                              _T1IE 0259                                _T1IF 0258  
                              _T1EN 0267                                _T2IE 025E  
                              _T2IF 025D                                _T2EN 0287  
                              _PDA0 0210                                _PDA1 0211  
                              _PDA2 0212                                _PDA3 0213  
                              _PDA4 0214                                _PDA5 0215  
                              _PDA6 0216                                _PDA7 0217  
                              _T0SE 020C                                _IOCA 0007  
                              _IOCB 0009                                _INDF 0000  
                              _PHA0 0218                                _PHA1 0219  
                              _PHA2 021A                                _PHA3 021B  
                              _PHA4 021C                                _PHA5 021D  
                              _PHA6 021E                                u1545 00FC  
                              _PHA7 021F                                u1650 0329  
                              u1660 032A                                _VHS0 02D9  
                              _VHS1 02DA                                _VHS2 02DB  
                              _PWMM 02A8                         main@current 00C4  
          __size_of_System_GetState 0002                                _main 001C  
              __end_of_Heat_SetMode 038E                     __end_ofi1_nPWM1 02C1  
                   __end_ofi1_nPWM2 02B0                                btemp 003E  
                              start 0019           __end_of_Motor_ToggleSpeed 027D  
                   __end_of_DelayMs 02D1                      _shutdown_timer 0034  
                        _Heat_Start 0393                               _ADCS0 02DC  
                             _ADCS1 02DD                               _ADCS2 02DE  
                             ?_main 002A                               _ADREF 02D8  
                   __end_of___awmod 011A                               _T1CK0 0263  
                             _T1CK1 0264                               _T2CK0 0283  
                             _T2CK1 0284                               _BOREN 025A  
                             _T1CON 004C                               _T2CON 0050  
                             _T1PR0 0260                               _T1PR1 0261  
                             _T1PR2 0262                               _T2PR0 0280  
                             _T2PR1 0281                               _T2PR2 0282  
                             _PDCON 000B                               i1l470 02DE  
                             _PHCON 000D                               _PMCON 0040  
                             _PWM0E 0266                               _PWM1E 0286  
                             _TMR2H 0051                               _PWM0P 004F  
                             _PWM1P 0054                               _PORTA 0005  
                             _PORTB 0006                               _WDTEN 020F  
                             _PWMS0 028E                               _PWMS1 028F  
                             _TRISA 0045                               _TRISB 0046  
                             u97_20 0332                               u98_20 0333  
           ?_keymode1_configuration 002A                               _nPWM1 028E  
                             _nPWM2 027D            ?_hardware_set_half_power 002A  
            ?_Motor_ToggleDirection 002A              _keymode2_configuration 0344  
                   __end_of_pwm_map 030C                               wtemp0 003E  
                   ??i1_Motor_Start 0000                     __initialization 001A  
             __end_of_Motor_GetMode 0393                 Heat_SetMode@newmode 0031  
                      __end_of_main 0079                  __size_of_DelayUs2x 0004  
                       _Heat_Toggle 0247               __end_of_Motor_SetMode 0154  
          ??_keymode3_configuration 0000                              ??_main 0000  
             __end_of_Motor_Process 00D1                  __size_of_Heat_Init 0003  
                __size_of_Heat_Stop 0005      __end_of_keymode1_configuration 0352  
                            ?_nPWM1 002A                              ?_nPWM2 002A  
                            _ADCON0 005A                              _ADCON1 005B  
                            _ADRESH 0059                              _ADRESL 0058  
                         ??i1_nPWM1 0000                           ??i1_nPWM2 0000  
                            _ANSEL0 02B0                              _ANSEL1 02B1  
                            _ANSEL2 02B2                              _ANSEL3 02B3  
                            _ANSEL4 02B4                              _ANSEL5 02B5  
                            _ANSEL6 02B6                              _ANSEL7 02B7  
                            _ANSEL8 02B8                              _ANSEL9 02B9  
                            _ANSELH 0057                              _ANSELL 0056  
                      ?i1_DelayUs2x 002A                              _T1LOAD 004E  
                            _T2LOAD 0053                              i1l2016 01A7  
                            i1l2018 01AC                              i1l1452 016C  
                            i1l4201 017D                              i1l4203 017F  
                            i1l4127 0215                              i1l4119 037F  
                            i1l4217 018A                              _PDCON1 0042  
                            i1l4219 018C                              u130_25 00AE  
                            i1l4173 0166                              i1l4327 02DF  
                            i1l4431 0204                              i1l4169 016A  
                            i1l4425 01FD                              i1l4417 01F4  
                            i1l4515 00BA                              i1l4179 0168  
                            i1l4187 0172                              i1l4525 00B5  
                            i1l4517 00A8                              i1l4621 01A2  
                            i1l4529 00BD                              i1l4493 0089  
                            i1l4495 008D                              i1l4497 008F  
                            _INTEDG 020E                              u134_25 00CA  
                            u126_25 0098                              _PHCON1 0043  
                         ??_DelayMs 0000                              _PMADRH 0048  
                            _PMADRL 0047                              _PMDATH 004A  
                            _PMDATL 0049                              _PORTB0 0030  
                            _PORTA4 002C                              _PORTA6 002E  
                            _PORTA7 002F                              _OPTION 0041  
                            _PWM1_8 0288                              _PWM1_9 0289  
                            _TRISA0 0228                              _TRISA1 0229  
                            _TRISB0 0230                              _TRISA2 022A  
                            _TRISB1 0231                              _TRISA3 022B  
                            _TRISB2 0232                              _TRISA4 022C  
                            _TRISB3 0233                              _TRISA5 022D  
                            _TRISB4 0234                              _TRISA6 022E  
                            _TRISB5 0235                              _TRISA7 022F  
                            _TRISB6 0236                              _TRISB7 0237  
                            _PWMSET 0055                        ?i1_Heat_Stop 002A  
     __size_ofi1_hardware_set_motor 0016          __size_of_Motor_ToggleSpeed 0011  
                        _Timer0_Isr 0199                   ??_System_GetState 0000  
                            nPWM1@n 0031                              nPWM2@m 0031  
                        _Motor_Init 030C                          _Motor_Stop 0399  
                     ??_Motor_Start 0000  hardware_set_heat@current_heat_mode 0032  
                       ?_Heat_Start 002A                           ??___awmod 0000  
                  __end_of_key_scan 0199                              _inital 02EF  
                  __end_of_key_tick 0208                     ___awmod@divisor 00C0  
                   ___awmod@counter 0031       __size_ofi1_hardware_stop_heat 0003  
                            saved_w 003E               __size_of_Heat_SetMode 0003  
                 __end_of_DelayUs2x 037E             __end_of__initialization 001A  
                 __end_of_Heat_Init 0388    hardware_set_half_power@pwm_value 0027  
          __size_of_HEAT_EnergySave 000E                   __end_of_Heat_Stop 0363  
                    __pcstackBANK1h 00C0                      __pcstackCOMMON 0000  
             __end_of_T0_sysinitial 033D                       __end_of_nPWM1 029F  
                     __end_of_nPWM2 028E                        __pidataBANK0 0382  
                        __end_ofPL2 015B     __size_of_keymode3_configuration 0007  
                      _Heat_SetMode 038B                 __end_of_Motor_Start 0376  
                      EXIT_BANK_FF0 01B7                             ??_nPWM1 0000  
                           ??_nPWM2 0000       __size_of_hardware_pwm_control 0006  
               __size_of_Heat_Start 0002         __size_of_hardware_set_motor 0014  
                        __pbssBANK0 0010                       _current_speed 001E  
                         SAVE_BANK1 000C                         ?_Timer0_Isr 002A  
                        __pmaintext 001C                         ?_Motor_Init 002A  
       __end_of_hardware_stop_motor 037A                         ?_Motor_Stop 002A  
          ??_keymode0_configuration 0000         __size_of_hardware_stop_heat 0003  
      __size_of_System_TimerHandler 0020                          __pintentry 0008  
                           ?_inital 002A            ?i1_Motor_ToggleDirection 002A  
                           _ANSEL10 02BA                             _ANSEL11 02BB  
                           _ANSEL14 02BE                             _ANSEL15 02BF  
                           _T0OSCEN 0265             ??_Motor_ToggleDirection 0000  
           ?_keymode2_configuration 002A                             _RD_FLAG 0200  
                           i1_nPWM1 02B0                             i1_nPWM2 029F  
                        __stringtab 0300                             _DelayMs 02C1  
            _keymode3_configuration 033D               i1_hardware_stop_motor 0368  
                         ?_key_scan 002A                           ?_key_tick 002A  
              __size_ofi1_DelayUs2x 0004                __size_ofi1_Heat_Stop 0005  
  __size_of_hardware_set_half_power 0010                          _ramInitial 025B  
                       _Motor_Start 0372                             ___awmod 00D1  
                 ??_HEAT_EnergySave 0000                        ?_Heat_Toggle 002A  
                   __size_of_inital 000D                             __ptext1 025B  
                           __ptext2 02EF                             __ptext3 0335  
                           __ptext4 026C                             __ptext5 00D1  
                           __ptext6 0323                             __ptext7 0399  
                           __ptext8 0372                             __ptext9 0233  
                         _T1CR_AUXR 004B      __end_of_keymode2_configuration 034B  
                  ___awmod@dividend 00C2                 __size_of_Timer0_Isr 0030  
                         _OCCUPY0BE 00BE                           _OCCUPY0BF 00BF  
                           _pwm_map 0306                 __size_of_Motor_Init 000C  
               __size_of_Motor_Stop 0001                     _System_GetState 0397  
              end_of_initialization 001A                          ??_key_scan 0000  
                        ??_key_tick 0000                   _hardware_set_heat 021E  
                ?_hardware_set_heat 002A     __end_ofi1_Motor_ToggleDirection 0335  
          ??i1_hardware_pwm_control 0000                        ??_Heat_Start 0000  
   __size_of_keymode0_configuration 000B               __end_ofi1_Motor_Start 0372  
               ??_hardware_set_heat 0000        __end_ofi1_hardware_set_motor 021E  
                     ?i1_Motor_Stop 002A              __size_of_Motor_GetMode 0002  
            ?i1_hardware_stop_motor 002A                  __end_of_Heat_Start 0395  
      __end_ofi1_hardware_stop_heat 0391              __size_of_Motor_SetMode 003A  
         __end_of_hardware_set_heat 0233              __size_of_Motor_Process 0058  
                         _DelayUs2x 037A                           _Heat_Init 0385  
                         _Heat_Stop 035E                         ?_ramInitial 002A  
                    __end_of_inital 02FC             __end_of_System_GetState 0399  
               start_initialization 001A                      ??i1_Motor_Stop 0000  
            _keymode0_configuration 0318                 _System_TimerHandler 01C9  
                     EXIT_BANK_SAVE 000F             _hardware_set_half_power 02D1  
                        ?_DelayUs2x 002A                        ??_Timer0_Isr 002D  
                      ??_Motor_Init 0000                          ?_Heat_Init 002A  
                      ??_Motor_Stop 0000                          ?_Heat_Stop 002A  
      __end_of_hardware_pwm_control 0358                       _Motor_GetMode 0391  
              ?_System_TimerHandler 002A            ??_keymode1_configuration 0000  
   __size_ofi1_hardware_pwm_control 0006                         __pdataBANK0 0034  
                          ??_inital 0000                            FF_BANK10 01B4  
                     _Motor_SetMode 011A                __size_of_Heat_Toggle 0014  
                     _Motor_Process 0079                           ___latbits 0000  
                     __pcstackBANK0 002A          hardware_pwm_control@enable 0031  
        __end_of_hardware_set_motor 0247      __size_of_Motor_ToggleDirection 0009  
           ?_keymode3_configuration 002A       __end_of_Motor_ToggleDirection 032C  
                __end_of_Timer0_Isr 01C9                            ?i1_nPWM1 002A  
                          ?i1_nPWM2 002A              __size_of_T0_sysinitial 0008  
                __end_of_Motor_Init 0318                 __size_of_ramInitial 0011  
                __end_of_Motor_Stop 039A    __size_ofi1_Motor_ToggleDirection 0009  
                          ?_DelayMs 0032                     _HEAT_EnergySave 02E1  
        __size_of_hardware_set_heat 0015                        _current_mode 001F  
                      i1DelayUs2x@t 002A                i1_hardware_set_motor 0208  
                 __size_of_key_scan 003E                   __size_of_key_tick 001F  
        __end_of_hardware_stop_heat 038B                key_tick@key_released 0036  
                    ?_Motor_GetMode 002A                            REV_BANK1 01C2  
             ??_System_TimerHandler 0000                        ?_Motor_Start 002A  
                          ?___awmod 00C0                           _final_key 0025  
                    ?_Motor_SetMode 002A                           __pstrings 0300  
                         __pswtext1 02FC                           __pswtext2 0005  
      __size_of_hardware_stop_motor 0004                      ?_Motor_Process 002A  
              i1_hardware_stop_heat 038E                    ?_System_GetState 002A  
    __end_of_keymode3_configuration 0344                      __size_of_nPWM1 0011  
                    __size_of_nPWM2 0011              i1_hardware_pwm_control 0358  
                     ??i1_DelayUs2x 0000                            Addresses 0000  
                          _T2LOAD_8 028A                            _T2LOAD_9 028B  
         ??_hardware_set_half_power 0000                        _mode_runtime 0017  
                 interrupt_function 0008                       ??i1_Heat_Stop 0000  
                          DelayMs@t 0032               ?i1_hardware_set_motor 002B  
                       ??_DelayUs2x 0000                         ??_Heat_Init 0000  
                          _TIMER2_8 028C                            _TIMER2_9 028D  
                       ??_Heat_Stop 0000                __end_ofi1_Motor_Stop 0397  
                          _MTP_CLEN 0201                       _T0_sysinitial 0335  
   __size_of_keymode1_configuration 0007                            i1nPWM1@n 002A  
                          i1nPWM2@m 002A                         __stringbase 0305  
             ?i1_hardware_stop_heat 002A             ??i1_hardware_stop_motor 0000  
           __end_of_HEAT_EnergySave 02EF                _hardware_pwm_control 0352  
                         _sys_state 0021                    __size_ofi1_nPWM1 0011  
                  __size_ofi1_nPWM2 0011                    __size_of_DelayMs 0010  
               __end_ofi1_DelayUs2x 0382                     ??_Motor_GetMode 0000  
                    ?_T0_sysinitial 002A                 __end_ofi1_Heat_Stop 0368  
                      ??_ramInitial 0000                     ??_Motor_SetMode 0000  
                  __size_of___awmod 0049                     ??_Motor_Process 0000  
   __end_of_hardware_set_half_power 02E1                  __end_of__stringtab 0306  
                     ?_Heat_SetMode 002A             ?_keymode0_configuration 002A  
                       _current_dir 0020        i1hardware_pwm_control@enable 002A  
                          __ptext10 030C                            __ptext11 0376  
                          __ptext20 02E1                            __ptext12 027D  
                          __ptext21 021E                            __ptext13 028E  
                          __ptext30 037E                            __ptext22 0388  
                          __ptext14 011A                            __ptext31 033D  
                          __ptext23 0352                            __ptext15 0391  
                          __ptext40 0079                            __ptext32 0344  
                          __ptext24 038B                            __ptext16 0247  
                          __ptext41 032C                            __ptext33 034B  
                          __ptext25 02C1                            __ptext17 035E  
                          __ptext42 0395                            __ptext34 0318  
                          __ptext26 037A                            __ptext18 0393  
                          __ptext43 0368                            __ptext35 02D1  
                          __ptext27 0199                            __ptext19 0385  
                          __ptext44 036D                            __ptext36 01C9  
                          __ptext28 01E9                            __ptext45 0208  
                          __ptext37 0363                            __ptext29 015B  
                          __ptext46 029F                            __ptext38 038E  
                          __ptext47 02B0                            __ptext39 0358  
                          __ptext48 0397             i1_Motor_ToggleDirection 032C  
             ?_hardware_pwm_control 002A              _keymode1_configuration 034B  
            __size_ofi1_Motor_Start 0005                  __end_of_ramInitial 026C  
                       _mode_params 0010                            _key_mode 0024  
            ??i1_hardware_set_motor 0000                            _key_scan 015B  
                          _key_tick 01E9                       __size_of_main 005D  
           i1hardware_set_motor@dir 002C                System_TimerHandler@i 001C  
          ??_keymode2_configuration 0000                __size_of_Motor_Start 0004  
            ??i1_hardware_stop_heat 0000                      ??_Heat_SetMode 0000  
    __end_of_keymode0_configuration 0323                          DelayUs2x@t 0031  
                  ?_HEAT_EnergySave 002A                         i1_DelayUs2x 037E  
                          intlevel1 0000                 _hardware_stop_motor 0376  
                       i1_Heat_Stop 0363               __size_ofi1_Motor_Stop 0002  
                _hardware_set_motor 0233                           stringcode 0300  
                   ??_T0_sysinitial 0000                       i1_Motor_Start 036D  
                     ??_Heat_Toggle 0000                 ?_hardware_set_motor 0032  
              ?_hardware_stop_motor 002A                  _hardware_stop_heat 0388  
           ?i1_hardware_pwm_control 002A           ??i1_Motor_ToggleDirection 0000  
                          stringdir 0300                            stringtab 0300  
            ??_hardware_pwm_control 0000                        i1_Motor_Stop 0395  
               ?_hardware_stop_heat 002A                ??_hardware_set_motor 0000  
                  key_tick@last_key 0022               _Motor_ToggleDirection 0323  
                 _current_heat_mode 0028         __end_of_System_TimerHandler 01E9  
                key_tick@stable_cnt 0023               hardware_set_motor@dir 0033  
           hardware_set_motor@speed 0032                         _pwm_enabled 0029  
